
LaserHarp_6_2.elf:     file format elf32-avr

Sections:
Idx Name          Size      VMA       LMA       File off  Algn
  0 .data         00000012  00800100  00002c0c  00002ca0  2**0
                  CONTENTS, ALLOC, LOAD, DATA
  1 .text         00002c0c  00000000  00000000  00000094  2**1
                  CONTENTS, ALLOC, LOAD, READONLY, CODE
  2 .bss          0000000b  00800112  00800112  00002cb2  2**0
                  ALLOC
  3 .comment      00000030  00000000  00000000  00002cb2  2**0
                  CONTENTS, READONLY
  4 .debug_aranges 00000098  00000000  00000000  00002ce2  2**0
                  CONTENTS, READONLY, DEBUGGING
  5 .debug_info   00001d85  00000000  00000000  00002d7a  2**0
                  CONTENTS, READONLY, DEBUGGING
  6 .debug_abbrev 000002f5  00000000  00000000  00004aff  2**0
                  CONTENTS, READONLY, DEBUGGING
  7 .debug_line   000005ab  00000000  00000000  00004df4  2**0
                  CONTENTS, READONLY, DEBUGGING
  8 .debug_frame  00000128  00000000  00000000  000053a0  2**2
                  CONTENTS, READONLY, DEBUGGING
  9 .debug_str    000002a7  00000000  00000000  000054c8  2**0
                  CONTENTS, READONLY, DEBUGGING
 10 .debug_loc    00000295  00000000  00000000  0000576f  2**0
                  CONTENTS, READONLY, DEBUGGING
 11 .debug_ranges 00000078  00000000  00000000  00005a04  2**0
                  CONTENTS, READONLY, DEBUGGING

Disassembly of section .text:

00000000 <__vectors>:
       0:	0c 94 bc 13 	jmp	0x2778	; 0x2778 <__ctors_end>
       4:	0c 94 d9 13 	jmp	0x27b2	; 0x27b2 <__bad_interrupt>
       8:	0c 94 d9 13 	jmp	0x27b2	; 0x27b2 <__bad_interrupt>
       c:	0c 94 d9 13 	jmp	0x27b2	; 0x27b2 <__bad_interrupt>
      10:	0c 94 d9 13 	jmp	0x27b2	; 0x27b2 <__bad_interrupt>
      14:	0c 94 d9 13 	jmp	0x27b2	; 0x27b2 <__bad_interrupt>
      18:	0c 94 d9 13 	jmp	0x27b2	; 0x27b2 <__bad_interrupt>
      1c:	0c 94 d9 13 	jmp	0x27b2	; 0x27b2 <__bad_interrupt>
      20:	0c 94 d9 13 	jmp	0x27b2	; 0x27b2 <__bad_interrupt>
      24:	0c 94 d9 13 	jmp	0x27b2	; 0x27b2 <__bad_interrupt>
      28:	0c 94 d9 13 	jmp	0x27b2	; 0x27b2 <__bad_interrupt>
      2c:	0c 94 fd 13 	jmp	0x27fa	; 0x27fa <__vector_11>
      30:	0c 94 d9 13 	jmp	0x27b2	; 0x27b2 <__bad_interrupt>
      34:	0c 94 d9 13 	jmp	0x27b2	; 0x27b2 <__bad_interrupt>
      38:	0c 94 d9 13 	jmp	0x27b2	; 0x27b2 <__bad_interrupt>
      3c:	0c 94 d9 13 	jmp	0x27b2	; 0x27b2 <__bad_interrupt>
      40:	0c 94 d9 13 	jmp	0x27b2	; 0x27b2 <__bad_interrupt>
      44:	0c 94 d9 13 	jmp	0x27b2	; 0x27b2 <__bad_interrupt>
      48:	0c 94 d9 13 	jmp	0x27b2	; 0x27b2 <__bad_interrupt>
      4c:	0c 94 d9 13 	jmp	0x27b2	; 0x27b2 <__bad_interrupt>
      50:	0c 94 d9 13 	jmp	0x27b2	; 0x27b2 <__bad_interrupt>
      54:	0c 94 d9 13 	jmp	0x27b2	; 0x27b2 <__bad_interrupt>
      58:	0c 94 d9 13 	jmp	0x27b2	; 0x27b2 <__bad_interrupt>
      5c:	0c 94 d9 13 	jmp	0x27b2	; 0x27b2 <__bad_interrupt>
      60:	0c 94 d9 13 	jmp	0x27b2	; 0x27b2 <__bad_interrupt>
      64:	0c 94 d9 13 	jmp	0x27b2	; 0x27b2 <__bad_interrupt>

00000068 <__trampolines_end>:
      68:	76 80       	ldd	r7, Z+6	; 0x06
      6a:	76 6c       	ori	r23, 0xC6	; 198
      6c:	76 80       	ldd	r7, Z+6	; 0x06
      6e:	8a 8a       	std	Y+18, r8	; 0x12
      70:	76 94       	lsr	r7
      72:	58 6c       	ori	r21, 0xC8	; 200
      74:	80 58       	subi	r24, 0x80	; 128
      76:	6c 6c       	ori	r22, 0xCC	; 204
      78:	76 4e       	sbci	r23, 0xE6	; 230
      7a:	6c 76       	andi	r22, 0x6C	; 108
      7c:	6c 4e       	sbci	r22, 0xEC	; 236
      7e:	62 9e       	mul	r6, r18
      80:	80 8a       	std	Z+16, r8	; 0x10
      82:	8a 94       	dec	r8
      84:	8a 80       	ldd	r8, Y+2	; 0x02
      86:	9e 94 94 8a 	call	0x251528	; 0x251528 <__data_load_end+0x24e90a>
      8a:	80 80       	ld	r8, Z
      8c:	76 80       	ldd	r7, Z+6	; 0x06
      8e:	80 9e       	mul	r8, r16
      90:	58 a8       	ldd	r5, Y+48	; 0x30
      92:	b2 76       	andi	r27, 0x62	; 98
      94:	94 80       	ldd	r9, Z+4	; 0x04
      96:	8a 76       	andi	r24, 0x6A	; 106
      98:	94 80       	ldd	r9, Z+4	; 0x04
      9a:	8a 76       	andi	r24, 0x6A	; 106
      9c:	6c 76       	andi	r22, 0x6C	; 108
      9e:	58 30       	cpi	r21, 0x08	; 8
      a0:	3a 44       	sbci	r19, 0x4A	; 74
      a2:	30 26       	eor	r3, r16
      a4:	26 4e       	sbci	r18, 0xE6	; 230
      a6:	44 08       	sbc	r4, r4
      a8:	4e 80       	ldd	r4, Y+6	; 0x06
      aa:	80 94       	com	r8
      ac:	6c 80       	ldd	r6, Y+4	; 0x04
      ae:	62 76       	andi	r22, 0x62	; 98
      b0:	94 94       	.word	0x9494	; ????
      b2:	8a 80       	ldd	r8, Y+2	; 0x02
      b4:	76 9e       	mul	r7, r22
      b6:	94 76       	andi	r25, 0x64	; 100
      b8:	a8 94       	cln
      ba:	94 c6       	rjmp	.+3368   	; 0xde4 <__stack+0x4e5>
      bc:	bc 94 d0 94 	jmp	0x2d29a0	; 0x2d29a0 <__data_load_end+0x2cfd82>
      c0:	9e a8       	ldd	r9, Y+54	; 0x36
      c2:	b2 9e       	mul	r11, r18
      c4:	9e 8a       	std	Y+22, r9	; 0x16
      c6:	8a 9e       	mul	r8, r26
      c8:	62 58       	subi	r22, 0x82	; 130
      ca:	3a 6c       	ori	r19, 0xCA	; 202
      cc:	44 3a       	cpi	r20, 0xA4	; 164
      ce:	3a 4e       	sbci	r19, 0xEA	; 234
      d0:	44 26       	eor	r4, r20
      d2:	62 80       	ldd	r6, Z+2	; 0x02
      d4:	8a 94       	dec	r8
      d6:	8a 8a       	std	Y+18, r8	; 0x12
      d8:	6c 76       	andi	r22, 0x6C	; 108
      da:	8a 94       	dec	r8
      dc:	8a 58       	subi	r24, 0x8A	; 138
      de:	76 80       	ldd	r7, Z+6	; 0x06
      e0:	8a 62       	ori	r24, 0x2A	; 42
      e2:	9e 94 8a bc 	call	0x257914	; 0x257914 <__data_load_end+0x254cf6>
      e6:	94 a8       	ldd	r9, Z+52	; 0x34
      e8:	a8 a8       	ldd	r10, Y+48	; 0x30
      ea:	8a b2       	in	r8, 0x1a	; 26
      ec:	9e a8       	ldd	r9, Y+54	; 0x36
      ee:	a8 80       	ld	r10, Y
      f0:	8a 80       	ldd	r8, Y+2	; 0x02
      f2:	62 4e       	sbci	r22, 0xE2	; 226
      f4:	3a 4e       	sbci	r19, 0xEA	; 234
      f6:	30 26       	eor	r3, r16
      f8:	26 44       	sbci	r18, 0x46	; 70
      fa:	30 26       	eor	r3, r16
      fc:	76 8a       	std	Z+22, r7	; 0x16
      fe:	9e 8a       	std	Y+22, r9	; 0x16
     100:	a8 94       	cln
     102:	80 76       	andi	r24, 0x60	; 96
     104:	8a 8a       	std	Y+18, r8	; 0x12
     106:	76 58       	subi	r23, 0x86	; 134
     108:	4e 8a       	std	Y+22, r4	; 0x16
     10a:	62 62       	ori	r22, 0x22	; 34
     10c:	8a 80       	ldd	r8, Y+2	; 0x02
     10e:	80 b2       	in	r8, 0x10	; 16
     110:	80 a8       	ldd	r8, Z+48	; 0x30
     112:	a8 9e       	mul	r10, r24
     114:	94 a8       	ldd	r9, Z+52	; 0x34
     116:	94 a8       	ldd	r9, Z+52	; 0x34
     118:	9e 6c       	ori	r25, 0xCE	; 206
     11a:	94 6c       	ori	r25, 0xC4	; 196
     11c:	62 3a       	cpi	r22, 0xA2	; 162
     11e:	30 44       	sbci	r19, 0x40	; 64
     120:	30 26       	eor	r3, r16
     122:	3a 44       	sbci	r19, 0x4A	; 74
     124:	3a 3a       	cpi	r19, 0xAA	; 170
     126:	76 9e       	mul	r7, r22
     128:	9e 9e       	mul	r9, r30
     12a:	bc a8       	ldd	r11, Y+52	; 0x34
     12c:	94 8a       	std	Z+20, r9	; 0x14
     12e:	8a b2       	in	r8, 0x1a	; 26
     130:	80 62       	ori	r24, 0x20	; 32
     132:	62 94       	swap	r6
     134:	6c 76       	andi	r22, 0x6C	; 108
     136:	a8 80       	ld	r10, Y
     138:	b2 a8       	ldd	r11, Z+50	; 0x32
     13a:	9e a8       	ldd	r9, Y+54	; 0x36
     13c:	bc 94 9e a8 	jmp	0x2d513c	; 0x2d513c <__data_load_end+0x2d251e>
     140:	94 b2       	in	r9, 0x14	; 20
     142:	94 76       	andi	r25, 0x64	; 100
     144:	8a 6c       	ori	r24, 0xCA	; 202
     146:	62 3a       	cpi	r22, 0xA2	; 162
     148:	30 3a       	cpi	r19, 0xA0	; 160
     14a:	30 1c       	adc	r3, r0
     14c:	3a 44       	sbci	r19, 0x4A	; 74
     14e:	26 44       	sbci	r18, 0x46	; 70
     150:	62 9e       	mul	r6, r18
     152:	94 9e       	mul	r9, r20
     154:	b2 9e       	mul	r11, r18
     156:	9e 80       	ldd	r9, Y+6	; 0x06
     158:	94 9e       	mul	r9, r20
     15a:	80 4e       	sbci	r24, 0xE0	; 224
     15c:	6c 80       	ldd	r6, Y+4	; 0x04
     15e:	76 76       	andi	r23, 0x66	; 102
     160:	9e 80       	ldd	r9, Y+6	; 0x06
     162:	b2 a8       	ldd	r11, Z+50	; 0x32
     164:	9e b2       	in	r9, 0x1e	; 30
     166:	c6 9e       	mul	r12, r22
     168:	9e a8       	ldd	r9, Y+54	; 0x36
     16a:	94 bc       	out	0x24, r9	; 36
     16c:	8a 80       	ldd	r8, Y+2	; 0x02
     16e:	76 6c       	ori	r23, 0xC6	; 198
     170:	58 30       	cpi	r21, 0x08	; 8
     172:	26 30       	cpi	r18, 0x06	; 6
     174:	26 12       	cpse	r2, r22
     176:	30 3a       	cpi	r19, 0xA0	; 160
     178:	26 3a       	cpi	r18, 0xA6	; 166
     17a:	58 8a       	std	Y+16, r5	; 0x10
     17c:	8a 94       	dec	r8
     17e:	b2 94       	swap	r11
     180:	9e 6c       	ori	r25, 0xCE	; 206
     182:	8a 94       	dec	r8
     184:	76 44       	sbci	r23, 0x46	; 70
     186:	62 80       	ldd	r6, Z+2	; 0x02
     188:	58 8a       	std	Y+16, r5	; 0x10
     18a:	76 94       	lsr	r7
     18c:	a8 b2       	in	r10, 0x18	; 24
     18e:	9e c6       	rjmp	.+3388   	; 0xecc <__stack+0x5cd>
     190:	c6 a8       	ldd	r12, Z+54	; 0x36
     192:	b2 a8       	ldd	r11, Z+50	; 0x32
     194:	a8 bc       	out	0x28, r10	; 40
     196:	8a 94       	dec	r8
     198:	80 80       	ld	r8, Z
     19a:	62 44       	sbci	r22, 0x42	; 66
     19c:	30 3a       	cpi	r19, 0xA0	; 160
     19e:	30 1c       	adc	r3, r0
     1a0:	4e 3a       	cpi	r20, 0xAE	; 174
     1a2:	44 3a       	cpi	r20, 0xA4	; 164
     1a4:	6c 94 94 a8 	jmp	0x195128	; 0x195128 <__data_load_end+0x19250a>
     1a8:	a8 a8       	ldd	r10, Y+48	; 0x30
     1aa:	94 80       	ldd	r9, Z+4	; 0x04
     1ac:	80 a8       	ldd	r8, Z+48	; 0x30
     1ae:	6c 4e       	sbci	r22, 0xEC	; 236
     1b0:	6c 76       	andi	r22, 0x6C	; 108
     1b2:	62 8a       	std	Z+18, r6	; 0x12
     1b4:	76 94       	lsr	r7
     1b6:	a8 a8       	ldd	r10, Y+48	; 0x30
     1b8:	9e bc       	out	0x2e, r9	; 46
     1ba:	c6 a8       	ldd	r12, Z+54	; 0x36
     1bc:	bc 9e       	mul	r11, r28
     1be:	b2 b2       	in	r11, 0x12	; 18
     1c0:	94 8a       	std	Z+20, r9	; 0x14
     1c2:	80 80       	ld	r8, Z
     1c4:	62 44       	sbci	r22, 0x42	; 66
     1c6:	30 3a       	cpi	r19, 0xA0	; 160
     1c8:	26 1c       	adc	r2, r6
     1ca:	44 44       	sbci	r20, 0x44	; 68
     1cc:	3a 44       	sbci	r19, 0x4A	; 74
     1ce:	62 8a       	std	Z+18, r6	; 0x12
     1d0:	8a a8       	ldd	r8, Y+50	; 0x32
     1d2:	9e a8       	ldd	r9, Y+54	; 0x36
     1d4:	8a 76       	andi	r24, 0x6A	; 106
     1d6:	80 94       	com	r8
     1d8:	6c 44       	sbci	r22, 0x4C	; 76
     1da:	76 58       	subi	r23, 0x86	; 134
     1dc:	76 76       	andi	r23, 0x66	; 102
     1de:	80 8a       	std	Z+16, r8	; 0x10
     1e0:	a8 a8       	ldd	r10, Y+48	; 0x30
     1e2:	94 bc       	out	0x24, r9	; 36
     1e4:	b2 a8       	ldd	r11, Z+50	; 0x32
     1e6:	a8 94       	cln
     1e8:	b2 a8       	ldd	r11, Z+50	; 0x32
     1ea:	94 80       	ldd	r9, Z+4	; 0x04
     1ec:	76 76       	andi	r23, 0x66	; 102
     1ee:	58 3a       	cpi	r21, 0xA8	; 168
     1f0:	26 3a       	cpi	r18, 0xA6	; 166
     1f2:	1c 26       	eor	r1, r28
     1f4:	3a 44       	sbci	r19, 0x4A	; 74
     1f6:	3a 3a       	cpi	r19, 0xAA	; 170
     1f8:	6c 80       	ldd	r6, Y+4	; 0x04
     1fa:	94 94       	.word	0x9494	; ????
     1fc:	a8 9e       	mul	r10, r24
     1fe:	94 6c       	ori	r25, 0xC4	; 196
     200:	8a 9e       	mul	r8, r26
     202:	6c 58       	subi	r22, 0x8C	; 140
     204:	76 62       	ori	r23, 0x26	; 38
     206:	8a 8a       	std	Y+18, r8	; 0x12
     208:	80 9e       	mul	r8, r16
     20a:	b2 a8       	ldd	r11, Z+50	; 0x32
     20c:	a8 d0       	rcall	.+336    	; 0x35e <__trampolines_end+0x2f6>
     20e:	bc bc       	out	0x2c, r11	; 44
     210:	a8 a8       	ldd	r10, Y+48	; 0x30
     212:	b2 b2       	in	r11, 0x12	; 18
     214:	94 8a       	std	Z+20, r9	; 0x14
     216:	80 80       	ld	r8, Z
     218:	62 44       	sbci	r22, 0x42	; 66
     21a:	3a 3a       	cpi	r19, 0xAA	; 170
     21c:	26 26       	eor	r2, r22
     21e:	44 3a       	cpi	r20, 0xA4	; 164
     220:	3a 3a       	cpi	r19, 0xAA	; 170
     222:	6c 76       	andi	r22, 0x6C	; 108
     224:	94 94       	.word	0x9494	; ????
     226:	9e 9e       	mul	r9, r30
     228:	8a 76       	andi	r24, 0x6A	; 106
     22a:	80 a8       	ldd	r8, Z+48	; 0x30
     22c:	58 6c       	ori	r21, 0xC8	; 200
     22e:	6c 6c       	ori	r22, 0xCC	; 204
     230:	80 80       	ld	r8, Z
     232:	80 9e       	mul	r8, r16
     234:	b2 9e       	mul	r11, r18
     236:	b2 c6       	rjmp	.+3428   	; 0xf9c <__stack+0x69d>
     238:	bc bc       	out	0x2c, r11	; 44
     23a:	9e a8       	ldd	r9, Y+54	; 0x36
     23c:	a8 b2       	in	r10, 0x18	; 24
     23e:	94 8a       	std	Z+20, r9	; 0x14
     240:	80 76       	andi	r24, 0x60	; 96
     242:	6c 3a       	cpi	r22, 0xAC	; 172
     244:	44 30       	cpi	r20, 0x04	; 4
     246:	1c 26       	eor	r1, r28
     248:	3a 44       	sbci	r19, 0x4A	; 74
     24a:	30 44       	sbci	r19, 0x40	; 64
     24c:	58 76       	andi	r21, 0x68	; 104
     24e:	80 8a       	std	Z+16, r8	; 0x10
     250:	94 94       	.word	0x9494	; ????
     252:	80 62       	ori	r24, 0x20	; 32
     254:	80 94       	com	r8
     256:	58 62       	ori	r21, 0x28	; 40
     258:	62 62       	ori	r22, 0x22	; 34
     25a:	80 76       	andi	r24, 0x60	; 96
     25c:	76 9e       	mul	r7, r22
     25e:	a8 94       	cln
     260:	b2 b2       	in	r11, 0x12	; 18
     262:	bc b2       	in	r11, 0x1c	; 28
     264:	9e a8       	ldd	r9, Y+54	; 0x36
     266:	a8 b2       	in	r10, 0x18	; 24
     268:	94 8a       	std	Z+20, r9	; 0x14
     26a:	8a 80       	ldd	r8, Y+2	; 0x02
     26c:	6c 4e       	sbci	r22, 0xEC	; 236
     26e:	4e 3a       	cpi	r20, 0xAE	; 174
     270:	26 3a       	cpi	r18, 0xA6	; 166
     272:	44 4e       	sbci	r20, 0xE4	; 228
     274:	3a 4e       	sbci	r19, 0xEA	; 234
     276:	62 76       	andi	r22, 0x62	; 98
     278:	8a 94       	dec	r8
     27a:	9e 94 8a 62 	call	0x24c514	; 0x24c514 <__data_load_end+0x2498f6>
     27e:	94 8a       	std	Z+20, r9	; 0x14
     280:	6c 6c       	ori	r22, 0xCC	; 204
     282:	62 6c       	ori	r22, 0xC2	; 194
     284:	80 80       	ld	r8, Z
     286:	76 9e       	mul	r7, r22
     288:	a8 9e       	mul	r10, r24
     28a:	bc b2       	in	r11, 0x1c	; 28
     28c:	c6 b2       	in	r12, 0x16	; 22
     28e:	9e a8       	ldd	r9, Y+54	; 0x36
     290:	a8 b2       	in	r10, 0x18	; 24
     292:	8a 94       	dec	r8
     294:	80 8a       	std	Z+16, r8	; 0x10
     296:	6c 4e       	sbci	r22, 0xEC	; 236
     298:	58 3a       	cpi	r21, 0xA8	; 168
     29a:	30 30       	cpi	r19, 0x00	; 0
     29c:	4e 3a       	cpi	r20, 0xAE	; 174
     29e:	3a 44       	sbci	r19, 0x4A	; 74
     2a0:	58 76       	andi	r21, 0x68	; 104
     2a2:	80 8a       	std	Z+16, r8	; 0x10
     2a4:	94 9e       	mul	r9, r20
     2a6:	76 6c       	ori	r23, 0xC6	; 198
     2a8:	94 80       	ldd	r9, Z+4	; 0x04
     2aa:	6c 62       	ori	r22, 0x2C	; 44
     2ac:	58 6c       	ori	r21, 0xC8	; 200
     2ae:	80 76       	andi	r24, 0x60	; 96
     2b0:	76 9e       	mul	r7, r22
     2b2:	94 9e       	mul	r9, r20
     2b4:	a8 a8       	ldd	r10, Y+48	; 0x30
     2b6:	bc a8       	ldd	r11, Y+52	; 0x34
     2b8:	94 9e       	mul	r9, r20
     2ba:	a8 9e       	mul	r10, r24
     2bc:	94 80       	ldd	r9, Z+4	; 0x04
     2be:	8a 80       	ldd	r8, Y+2	; 0x02
     2c0:	62 58       	subi	r22, 0x82	; 130
     2c2:	4e 3a       	cpi	r20, 0xAE	; 174
     2c4:	26 30       	cpi	r18, 0x06	; 6
     2c6:	4e 3a       	cpi	r20, 0xAE	; 174
     2c8:	3a 44       	sbci	r19, 0x4A	; 74
     2ca:	4e 76       	andi	r20, 0x6E	; 110
     2cc:	76 8a       	std	Z+22, r7	; 0x16
     2ce:	8a 9e       	mul	r8, r26
     2d0:	76 76       	andi	r23, 0x66	; 102
     2d2:	94 80       	ldd	r9, Z+4	; 0x04
     2d4:	76 6c       	ori	r23, 0xC6	; 198
     2d6:	62 6c       	ori	r22, 0xC2	; 194
     2d8:	8a 76       	andi	r24, 0x6A	; 106
     2da:	80 a8       	ldd	r8, Z+48	; 0x30
     2dc:	94 a8       	ldd	r9, Z+52	; 0x34
     2de:	a8 b2       	in	r10, 0x18	; 24
     2e0:	bc a8       	ldd	r11, Y+52	; 0x34
     2e2:	9e 9e       	mul	r9, r30
     2e4:	b2 a8       	ldd	r11, Z+50	; 0x32
     2e6:	9e 8a       	std	Y+22, r9	; 0x16
     2e8:	94 8a       	std	Z+20, r9	; 0x14
     2ea:	62 6c       	ori	r22, 0xC2	; 194
     2ec:	4e 44       	sbci	r20, 0x4E	; 78
     2ee:	26 3a       	cpi	r18, 0xA6	; 166
     2f0:	4e 44       	sbci	r20, 0x4E	; 78
     2f2:	3a 44       	sbci	r19, 0x4A	; 74
     2f4:	58 6c       	ori	r21, 0xC8	; 200
     2f6:	80 80       	ld	r8, Z
     2f8:	94 9e       	mul	r9, r20
     2fa:	6c 76       	andi	r22, 0x6C	; 108
     2fc:	8a 80       	ldd	r8, Y+2	; 0x02
     2fe:	76 6c       	ori	r23, 0xC6	; 198
     300:	62 6c       	ori	r22, 0xC2	; 194
     302:	8a 6c       	ori	r24, 0xCA	; 202
     304:	80 9e       	mul	r8, r16
     306:	94 9e       	mul	r9, r20
     308:	a8 b2       	in	r10, 0x18	; 24
     30a:	bc a8       	ldd	r11, Y+52	; 0x34
     30c:	94 a8       	ldd	r9, Z+52	; 0x34
     30e:	a8 a8       	ldd	r10, Y+48	; 0x30
     310:	94 8a       	std	Z+20, r9	; 0x14
     312:	94 8a       	std	Z+20, r9	; 0x14
     314:	6c 6c       	ori	r22, 0xCC	; 204
     316:	58 44       	sbci	r21, 0x48	; 72
     318:	26 3a       	cpi	r18, 0xA6	; 166
     31a:	4e 3a       	cpi	r20, 0xAE	; 174
     31c:	3a 3a       	cpi	r19, 0xAA	; 170
     31e:	4e 62       	ori	r20, 0x2E	; 46
     320:	76 76       	andi	r23, 0x66	; 102
     322:	94 8a       	std	Z+20, r9	; 0x14
     324:	6c 76       	andi	r22, 0x6C	; 108
     326:	80 80       	ld	r8, Z
     328:	76 6c       	ori	r23, 0xC6	; 198
     32a:	58 6c       	ori	r21, 0xC8	; 200
     32c:	80 62       	ori	r24, 0x20	; 32
     32e:	80 8a       	std	Z+16, r8	; 0x10
     330:	94 9e       	mul	r9, r20
     332:	9e b2       	in	r9, 0x1e	; 30
     334:	b2 a8       	ldd	r11, Z+50	; 0x32
     336:	94 9e       	mul	r9, r20
     338:	a8 a8       	ldd	r10, Y+48	; 0x30
     33a:	94 8a       	std	Z+20, r9	; 0x14
     33c:	9e 80       	ldd	r9, Y+6	; 0x06
     33e:	76 6c       	ori	r23, 0xC6	; 198
     340:	62 44       	sbci	r22, 0x42	; 66
     342:	30 3a       	cpi	r19, 0xA0	; 160
     344:	4e 44       	sbci	r20, 0x4E	; 78
     346:	3a 44       	sbci	r19, 0x4A	; 74
     348:	4e 6c       	ori	r20, 0xCE	; 206
     34a:	76 80       	ldd	r7, Z+6	; 0x06
     34c:	9e 8a       	std	Y+22, r9	; 0x16
     34e:	76 80       	ldd	r7, Z+6	; 0x06
     350:	8a 80       	ldd	r8, Y+2	; 0x02
     352:	76 6c       	ori	r23, 0xC6	; 198
     354:	58 76       	andi	r21, 0x68	; 104
     356:	76 6c       	ori	r23, 0xC6	; 198
     358:	80 8a       	std	Z+16, r8	; 0x10
     35a:	94 94       	.word	0x9494	; ????
     35c:	9e a8       	ldd	r9, Y+54	; 0x36
     35e:	bc 9e       	mul	r11, r28
     360:	94 9e       	mul	r9, r20
     362:	a8 a8       	ldd	r10, Y+48	; 0x30
     364:	94 8a       	std	Z+20, r9	; 0x14
     366:	9e 8a       	std	Y+22, r9	; 0x16
     368:	76 76       	andi	r23, 0x66	; 102
     36a:	62 4e       	sbci	r22, 0xE2	; 226
     36c:	30 44       	sbci	r19, 0x40	; 64
     36e:	44 44       	sbci	r20, 0x44	; 68
     370:	3a 44       	sbci	r19, 0x4A	; 74
     372:	4e 6c       	ori	r20, 0xCE	; 206
     374:	6c 80       	ldd	r6, Y+4	; 0x04
     376:	a8 8a       	std	Y+16, r10	; 0x10
     378:	76 80       	ldd	r7, Z+6	; 0x06
     37a:	8a 80       	ldd	r8, Y+2	; 0x02
     37c:	80 6c       	ori	r24, 0xC0	; 192
     37e:	58 76       	andi	r21, 0x68	; 104
     380:	76 6c       	ori	r23, 0xC6	; 198
     382:	80 8a       	std	Z+16, r8	; 0x10
     384:	94 94       	.word	0x9494	; ????
     386:	94 a8       	ldd	r9, Z+52	; 0x34
     388:	b2 9e       	mul	r11, r18
     38a:	94 94       	.word	0x9494	; ????
     38c:	9e a8       	ldd	r9, Y+54	; 0x36
     38e:	8a 94       	dec	r8
     390:	94 80       	ldd	r9, Z+4	; 0x04
     392:	6c 6c       	ori	r22, 0xCC	; 204
     394:	62 44       	sbci	r22, 0x42	; 66
     396:	30 3a       	cpi	r19, 0xA0	; 160
     398:	44 3a       	cpi	r20, 0xA4	; 164
     39a:	3a 3a       	cpi	r19, 0xAA	; 170
     39c:	44 6c       	ori	r20, 0xC4	; 196
     39e:	62 80       	ldd	r6, Z+2	; 0x02
     3a0:	9e 80       	ldd	r9, Y+6	; 0x06
     3a2:	76 80       	ldd	r7, Z+6	; 0x06
     3a4:	8a 80       	ldd	r8, Y+2	; 0x02
     3a6:	80 62       	ori	r24, 0x20	; 32
     3a8:	62 76       	andi	r22, 0x62	; 98
     3aa:	76 76       	andi	r23, 0x66	; 102
     3ac:	80 8a       	std	Z+16, r8	; 0x10
     3ae:	94 94       	.word	0x9494	; ????
     3b0:	94 a8       	ldd	r9, Z+52	; 0x34
     3b2:	b2 9e       	mul	r11, r18
     3b4:	94 94       	.word	0x9494	; ????
     3b6:	a8 a8       	ldd	r10, Y+48	; 0x30
     3b8:	8a 94       	dec	r8
     3ba:	9e 8a       	std	Y+22, r9	; 0x16
     3bc:	76 76       	andi	r23, 0x66	; 102
     3be:	6c 44       	sbci	r22, 0x4C	; 76
     3c0:	3a 3a       	cpi	r19, 0xAA	; 170
     3c2:	4e 3a       	cpi	r20, 0xAE	; 174
     3c4:	44 3a       	cpi	r20, 0xA4	; 164
     3c6:	4e 6c       	ori	r20, 0xCE	; 206
     3c8:	62 80       	ldd	r6, Z+2	; 0x02
     3ca:	9e 8a       	std	Y+22, r9	; 0x16
     3cc:	80 8a       	std	Z+16, r8	; 0x10
     3ce:	8a 8a       	std	Y+18, r8	; 0x12
     3d0:	8a 6c       	ori	r24, 0xCA	; 202
     3d2:	6c 76       	andi	r22, 0x6C	; 108
     3d4:	76 76       	andi	r23, 0x66	; 102
     3d6:	80 8a       	std	Z+16, r8	; 0x10
     3d8:	94 94       	.word	0x9494	; ????
     3da:	94 a8       	ldd	r9, Z+52	; 0x34
     3dc:	b2 9e       	mul	r11, r18
     3de:	9e 94 b2 a8 	call	0x255164	; 0x255164 <__data_load_end+0x252546>
     3e2:	94 94       	.word	0x9494	; ????
     3e4:	9e 8a       	std	Y+22, r9	; 0x16
     3e6:	76 80       	ldd	r7, Z+6	; 0x06
     3e8:	6c 4e       	sbci	r22, 0xEC	; 236
     3ea:	3a 44       	sbci	r19, 0x4A	; 74
     3ec:	4e 3a       	cpi	r20, 0xAE	; 174
     3ee:	3a 3a       	cpi	r19, 0xAA	; 170
     3f0:	4e 62       	ori	r20, 0x2E	; 46
     3f2:	58 80       	ld	r5, Y
     3f4:	94 80       	ldd	r9, Z+4	; 0x04
     3f6:	76 80       	ldd	r7, Z+6	; 0x06
     3f8:	76 8a       	std	Z+22, r7	; 0x16
     3fa:	80 62       	ori	r24, 0x20	; 32
     3fc:	6c 6c       	ori	r22, 0xCC	; 204
     3fe:	6c 6c       	ori	r22, 0xCC	; 204
     400:	80 80       	ld	r8, Z
     402:	8a 8a       	std	Y+18, r8	; 0x12
     404:	94 a8       	ldd	r9, Z+52	; 0x34
     406:	a8 9e       	mul	r10, r24
     408:	94 94       	.word	0x9494	; ????
     40a:	a8 a8       	ldd	r10, Y+48	; 0x30
     40c:	94 94       	.word	0x9494	; ????
     40e:	94 8a       	std	Z+20, r9	; 0x14
     410:	76 80       	ldd	r7, Z+6	; 0x06
     412:	6c 4e       	sbci	r22, 0xEC	; 236
     414:	3a 44       	sbci	r19, 0x4A	; 74
     416:	44 44       	sbci	r20, 0x44	; 68
     418:	44 3a       	cpi	r20, 0xA4	; 164
     41a:	58 58       	subi	r21, 0x88	; 136
     41c:	62 80       	ldd	r6, Z+2	; 0x02
     41e:	9e 80       	ldd	r9, Y+6	; 0x06
     420:	80 8a       	std	Z+16, r8	; 0x10
     422:	80 8a       	std	Z+16, r8	; 0x10
     424:	80 6c       	ori	r24, 0xC0	; 192
     426:	6c 6c       	ori	r22, 0xCC	; 204
     428:	76 76       	andi	r23, 0x66	; 102
     42a:	80 8a       	std	Z+16, r8	; 0x10
     42c:	8a 94       	dec	r8
     42e:	94 a8       	ldd	r9, Z+52	; 0x34
     430:	a8 a8       	ldd	r10, Y+48	; 0x30
     432:	94 94       	.word	0x9494	; ????
     434:	a8 a8       	ldd	r10, Y+48	; 0x30
     436:	94 94       	.word	0x9494	; ????
     438:	9e 8a       	std	Y+22, r9	; 0x16
     43a:	80 8a       	std	Z+16, r8	; 0x10
     43c:	76 58       	subi	r23, 0x86	; 134
     43e:	44 4e       	sbci	r20, 0xE4	; 228
     440:	44 44       	sbci	r20, 0x44	; 68
     442:	44 3a       	cpi	r20, 0xA4	; 164
     444:	58 58       	subi	r21, 0x88	; 136
     446:	62 80       	ldd	r6, Z+2	; 0x02
     448:	9e 80       	ldd	r9, Y+6	; 0x06
     44a:	80 80       	ld	r8, Z
     44c:	80 94       	com	r8
     44e:	80 6c       	ori	r24, 0xC0	; 192
     450:	6c 6c       	ori	r22, 0xCC	; 204
     452:	6c 76       	andi	r22, 0x6C	; 108
     454:	76 80       	ldd	r7, Z+6	; 0x06
     456:	8a 8a       	std	Y+18, r8	; 0x12
     458:	94 a8       	ldd	r9, Z+52	; 0x34
     45a:	a8 a8       	ldd	r10, Y+48	; 0x30
     45c:	94 94       	.word	0x9494	; ????
     45e:	a8 9e       	mul	r10, r24
     460:	94 94       	.word	0x9494	; ????
     462:	9e 80       	ldd	r9, Y+6	; 0x06
     464:	80 80       	ld	r8, Z
     466:	76 58       	subi	r23, 0x86	; 134
     468:	44 44       	sbci	r20, 0x44	; 68
     46a:	44 4e       	sbci	r20, 0xE4	; 228
     46c:	3a 3a       	cpi	r19, 0xAA	; 170
     46e:	4e 4e       	sbci	r20, 0xEE	; 238
     470:	58 80       	ld	r5, Y
     472:	94 80       	ldd	r9, Z+4	; 0x04
     474:	80 80       	ld	r8, Z
     476:	80 94       	com	r8
     478:	76 6c       	ori	r23, 0xC6	; 198
     47a:	6c 6c       	ori	r22, 0xCC	; 204
     47c:	6c 6c       	ori	r22, 0xCC	; 204
     47e:	76 80       	ldd	r7, Z+6	; 0x06
     480:	8a 8a       	std	Y+18, r8	; 0x12
     482:	94 9e       	mul	r9, r20
     484:	b2 a8       	ldd	r11, Z+50	; 0x32
     486:	94 94       	.word	0x9494	; ????
     488:	a8 9e       	mul	r10, r24
     48a:	94 9e       	mul	r9, r20
     48c:	9e 8a       	std	Y+22, r9	; 0x16
     48e:	8a 8a       	std	Y+18, r8	; 0x12
     490:	80 58       	subi	r24, 0x80	; 128
     492:	4e 4e       	sbci	r20, 0xEE	; 238
     494:	4e 4e       	sbci	r20, 0xEE	; 238
     496:	3a 44       	sbci	r19, 0x4A	; 74
     498:	58 4e       	sbci	r21, 0xE8	; 232
     49a:	58 8a       	std	Y+16, r5	; 0x10
     49c:	94 80       	ldd	r9, Z+4	; 0x04
     49e:	8a 80       	ldd	r8, Y+2	; 0x02
     4a0:	8a 94       	dec	r8
     4a2:	80 76       	andi	r24, 0x60	; 96
     4a4:	76 6c       	ori	r23, 0xC6	; 198
     4a6:	76 76       	andi	r23, 0x66	; 102
     4a8:	76 8a       	std	Z+22, r7	; 0x16
     4aa:	8a 8a       	std	Y+18, r8	; 0x12
     4ac:	94 9e       	mul	r9, r20
     4ae:	b2 a8       	ldd	r11, Z+50	; 0x32
     4b0:	94 94       	.word	0x9494	; ????
     4b2:	a8 9e       	mul	r10, r24
     4b4:	94 9e       	mul	r9, r20
     4b6:	94 8a       	std	Z+20, r9	; 0x14
     4b8:	8a 8a       	std	Y+18, r8	; 0x12
     4ba:	80 58       	subi	r24, 0x80	; 128
     4bc:	4e 44       	sbci	r20, 0x4E	; 78
     4be:	4e 4e       	sbci	r20, 0xEE	; 238
     4c0:	3a 44       	sbci	r19, 0x4A	; 74
     4c2:	4e 4e       	sbci	r20, 0xEE	; 238
     4c4:	58 80       	ld	r5, Y
     4c6:	8a 80       	ldd	r8, Y+2	; 0x02
     4c8:	8a 76       	andi	r24, 0x6A	; 106
     4ca:	8a 94       	dec	r8
     4cc:	80 76       	andi	r24, 0x60	; 96
     4ce:	6c 6c       	ori	r22, 0xCC	; 204
     4d0:	6c 76       	andi	r22, 0x6C	; 108
     4d2:	76 8a       	std	Z+22, r7	; 0x16
     4d4:	80 8a       	std	Z+16, r8	; 0x10
     4d6:	94 9e       	mul	r9, r20
     4d8:	b2 9e       	mul	r11, r18
     4da:	94 94       	.word	0x9494	; ????
     4dc:	9e 9e       	mul	r9, r30
     4de:	94 9e       	mul	r9, r20
     4e0:	94 8a       	std	Z+20, r9	; 0x14
     4e2:	80 8a       	std	Z+16, r8	; 0x10
     4e4:	76 62       	ori	r23, 0x26	; 38
     4e6:	4e 44       	sbci	r20, 0x4E	; 78
     4e8:	4e 44       	sbci	r20, 0x4E	; 78
     4ea:	3a 44       	sbci	r19, 0x4A	; 74
     4ec:	4e 44       	sbci	r20, 0x4E	; 78
     4ee:	58 80       	ld	r5, Y
     4f0:	8a 8a       	std	Y+18, r8	; 0x12
     4f2:	80 80       	ld	r8, Z
     4f4:	8a 94       	dec	r8
     4f6:	80 76       	andi	r24, 0x60	; 96
     4f8:	76 6c       	ori	r23, 0xC6	; 198
     4fa:	76 76       	andi	r23, 0x66	; 102
     4fc:	76 8a       	std	Z+22, r7	; 0x16
     4fe:	8a 8a       	std	Y+18, r8	; 0x12
     500:	94 9e       	mul	r9, r20
     502:	b2 a8       	ldd	r11, Z+50	; 0x32
     504:	94 94       	.word	0x9494	; ????
     506:	a8 9e       	mul	r10, r24
     508:	94 9e       	mul	r9, r20
     50a:	9e 8a       	std	Y+22, r9	; 0x16
     50c:	8a 94       	dec	r8
     50e:	80 6c       	ori	r24, 0xC0	; 192
     510:	58 4e       	sbci	r21, 0xE8	; 232
     512:	58 4e       	sbci	r21, 0xE8	; 232
     514:	3a 44       	sbci	r19, 0x4A	; 74
     516:	4e 44       	sbci	r20, 0x4E	; 78
     518:	58 80       	ld	r5, Y
     51a:	80 8a       	std	Z+16, r8	; 0x10
     51c:	80 80       	ld	r8, Z
     51e:	8a 8a       	std	Y+18, r8	; 0x12
     520:	80 76       	andi	r24, 0x60	; 96
     522:	76 6c       	ori	r23, 0xC6	; 198
     524:	76 6c       	ori	r23, 0xC6	; 198
     526:	76 80       	ldd	r7, Z+6	; 0x06
     528:	80 8a       	std	Z+16, r8	; 0x10
     52a:	8a 9e       	mul	r8, r26
     52c:	b2 9e       	mul	r11, r18
     52e:	94 94       	.word	0x9494	; ????
     530:	9e 9e       	mul	r9, r30
     532:	94 9e       	mul	r9, r20
     534:	9e 8a       	std	Y+22, r9	; 0x16
     536:	8a 94       	dec	r8
     538:	80 6c       	ori	r24, 0xC0	; 192
     53a:	4e 4e       	sbci	r20, 0xEE	; 238
     53c:	58 4e       	sbci	r21, 0xE8	; 232
     53e:	3a 4e       	sbci	r19, 0xEA	; 234
     540:	4e 44       	sbci	r20, 0x4E	; 78
     542:	58 76       	andi	r21, 0x68	; 104
     544:	80 8a       	std	Z+16, r8	; 0x10
     546:	80 76       	andi	r24, 0x60	; 96
     548:	8a 8a       	std	Y+18, r8	; 0x12
     54a:	80 76       	andi	r24, 0x60	; 96
     54c:	76 6c       	ori	r23, 0xC6	; 198
     54e:	6c 6c       	ori	r22, 0xCC	; 204
     550:	76 80       	ldd	r7, Z+6	; 0x06
     552:	80 8a       	std	Z+16, r8	; 0x10
     554:	8a 9e       	mul	r8, r26
     556:	a8 9e       	mul	r10, r24
     558:	8a 94       	dec	r8
     55a:	9e 9e       	mul	r9, r30
     55c:	94 9e       	mul	r9, r20
     55e:	9e 8a       	std	Y+22, r9	; 0x16
     560:	8a 94       	dec	r8
     562:	80 76       	andi	r24, 0x60	; 96
     564:	58 4e       	sbci	r21, 0xE8	; 232
     566:	58 4e       	sbci	r21, 0xE8	; 232
     568:	44 4e       	sbci	r20, 0xE4	; 228
     56a:	4e 44       	sbci	r20, 0x4E	; 78
     56c:	58 76       	andi	r21, 0x68	; 104
     56e:	8a 8a       	std	Y+18, r8	; 0x12
     570:	80 80       	ld	r8, Z
     572:	8a 94       	dec	r8
     574:	80 80       	ld	r8, Z
     576:	76 76       	andi	r23, 0x66	; 102
     578:	76 6c       	ori	r23, 0xC6	; 198
     57a:	76 80       	ldd	r7, Z+6	; 0x06
     57c:	80 8a       	std	Z+16, r8	; 0x10
     57e:	8a 9e       	mul	r8, r26
     580:	a8 a8       	ldd	r10, Y+48	; 0x30
     582:	94 9e       	mul	r9, r20
     584:	9e 9e       	mul	r9, r30
     586:	94 9e       	mul	r9, r20
     588:	9e 8a       	std	Y+22, r9	; 0x16
     58a:	8a 94       	dec	r8
     58c:	8a 76       	andi	r24, 0x6A	; 106
     58e:	58 4e       	sbci	r21, 0xE8	; 232
     590:	58 4e       	sbci	r21, 0xE8	; 232
     592:	3a 4e       	sbci	r19, 0xEA	; 234
     594:	4e 44       	sbci	r20, 0x4E	; 78
     596:	58 6c       	ori	r21, 0xC8	; 200
     598:	80 8a       	std	Z+16, r8	; 0x10
     59a:	80 80       	ld	r8, Z
     59c:	8a 8a       	std	Y+18, r8	; 0x12
     59e:	80 80       	ld	r8, Z
     5a0:	76 76       	andi	r23, 0x66	; 102
     5a2:	6c 6c       	ori	r22, 0xCC	; 204
     5a4:	76 76       	andi	r23, 0x66	; 102
     5a6:	80 80       	ld	r8, Z
     5a8:	8a 94       	dec	r8
     5aa:	a8 9e       	mul	r10, r24
     5ac:	94 94       	.word	0x9494	; ????
     5ae:	9e 94 94 9e 	call	0x253d28	; 0x253d28 <__data_load_end+0x25110a>
     5b2:	94 8a       	std	Z+20, r9	; 0x14
     5b4:	8a 8a       	std	Y+18, r8	; 0x12
     5b6:	8a 76       	andi	r24, 0x6A	; 106
     5b8:	58 4e       	sbci	r21, 0xE8	; 232
     5ba:	58 4e       	sbci	r21, 0xE8	; 232
     5bc:	3a 4e       	sbci	r19, 0xEA	; 234
     5be:	44 44       	sbci	r20, 0x44	; 68
     5c0:	58 6c       	ori	r21, 0xC8	; 200
     5c2:	80 8a       	std	Z+16, r8	; 0x10
     5c4:	80 76       	andi	r24, 0x60	; 96
     5c6:	8a 8a       	std	Y+18, r8	; 0x12
     5c8:	8a 80       	ldd	r8, Y+2	; 0x02
     5ca:	76 76       	andi	r23, 0x66	; 102
     5cc:	6c 6c       	ori	r22, 0xCC	; 204
     5ce:	76 80       	ldd	r7, Z+6	; 0x06
     5d0:	80 80       	ld	r8, Z
     5d2:	8a 94       	dec	r8
     5d4:	a8 9e       	mul	r10, r24
     5d6:	94 94       	.word	0x9494	; ????
     5d8:	9e 94 94 9e 	call	0x253d28	; 0x253d28 <__data_load_end+0x25110a>
     5dc:	94 8a       	std	Z+20, r9	; 0x14
     5de:	8a 94       	dec	r8
     5e0:	8a 76       	andi	r24, 0x6A	; 106
     5e2:	62 58       	subi	r22, 0x82	; 130
     5e4:	62 4e       	sbci	r22, 0xE2	; 226
     5e6:	44 58       	subi	r20, 0x84	; 132
     5e8:	4e 44       	sbci	r20, 0x4E	; 78
     5ea:	58 6c       	ori	r21, 0xC8	; 200
     5ec:	80 8a       	std	Z+16, r8	; 0x10
     5ee:	80 80       	ld	r8, Z
     5f0:	8a 8a       	std	Y+18, r8	; 0x12
     5f2:	8a 80       	ldd	r8, Y+2	; 0x02
     5f4:	76 76       	andi	r23, 0x66	; 102
     5f6:	6c 76       	andi	r22, 0x6C	; 108
     5f8:	76 80       	ldd	r7, Z+6	; 0x06
     5fa:	80 80       	ld	r8, Z
     5fc:	80 94       	com	r8
     5fe:	a8 9e       	mul	r10, r24
     600:	94 94       	.word	0x9494	; ????
     602:	9e 94 94 9e 	call	0x253d28	; 0x253d28 <__data_load_end+0x25110a>
     606:	94 8a       	std	Z+20, r9	; 0x14
     608:	8a 8a       	std	Y+18, r8	; 0x12
     60a:	8a 76       	andi	r24, 0x6A	; 106
     60c:	62 58       	subi	r22, 0x82	; 130
     60e:	62 44       	sbci	r22, 0x42	; 66
     610:	44 4e       	sbci	r20, 0xE4	; 228
     612:	44 44       	sbci	r20, 0x44	; 68
     614:	4e 62       	ori	r20, 0x2E	; 46
     616:	76 80       	ldd	r7, Z+6	; 0x06
     618:	76 76       	andi	r23, 0x66	; 102
     61a:	80 8a       	std	Z+16, r8	; 0x10
     61c:	8a 76       	andi	r24, 0x6A	; 106
     61e:	76 76       	andi	r23, 0x66	; 102
     620:	6c 6c       	ori	r22, 0xCC	; 204
     622:	76 76       	andi	r23, 0x66	; 102
     624:	80 80       	ld	r8, Z
     626:	80 94       	com	r8
     628:	a8 9e       	mul	r10, r24
     62a:	94 94       	.word	0x9494	; ????
     62c:	9e 94 94 9e 	call	0x253d28	; 0x253d28 <__data_load_end+0x25110a>
     630:	94 8a       	std	Z+20, r9	; 0x14
     632:	8a 94       	dec	r8
     634:	8a 80       	ldd	r8, Y+2	; 0x02
     636:	62 62       	ori	r22, 0x22	; 34
     638:	62 4e       	sbci	r22, 0xE2	; 226
     63a:	4e 4e       	sbci	r20, 0xEE	; 238
     63c:	44 44       	sbci	r20, 0x44	; 68
     63e:	4e 62       	ori	r20, 0x2E	; 46
     640:	76 80       	ldd	r7, Z+6	; 0x06
     642:	76 80       	ldd	r7, Z+6	; 0x06
     644:	80 8a       	std	Z+16, r8	; 0x10
     646:	8a 80       	ldd	r8, Y+2	; 0x02
     648:	80 76       	andi	r24, 0x60	; 96
     64a:	6c 6c       	ori	r22, 0xCC	; 204
     64c:	76 76       	andi	r23, 0x66	; 102
     64e:	80 80       	ld	r8, Z
     650:	80 94       	com	r8
     652:	a8 9e       	mul	r10, r24
     654:	94 94       	.word	0x9494	; ????
     656:	9e 94 94 9e 	call	0x253d28	; 0x253d28 <__data_load_end+0x25110a>
     65a:	94 94       	.word	0x9494	; ????
     65c:	8a 94       	dec	r8
     65e:	94 80       	ldd	r9, Z+4	; 0x04
     660:	62 62       	ori	r22, 0x22	; 34
     662:	62 4e       	sbci	r22, 0xE2	; 226
     664:	4e 4e       	sbci	r20, 0xEE	; 238
     666:	4e 44       	sbci	r20, 0x4E	; 78
     668:	4e 58       	subi	r20, 0x8E	; 142
     66a:	76 80       	ldd	r7, Z+6	; 0x06
     66c:	76 80       	ldd	r7, Z+6	; 0x06
     66e:	80 8a       	std	Z+16, r8	; 0x10
     670:	8a 80       	ldd	r8, Y+2	; 0x02
     672:	80 76       	andi	r24, 0x60	; 96
     674:	6c 6c       	ori	r22, 0xCC	; 204
     676:	76 76       	andi	r23, 0x66	; 102
     678:	80 80       	ld	r8, Z
     67a:	80 8a       	std	Z+16, r8	; 0x10
     67c:	9e 9e       	mul	r9, r30
     67e:	94 94       	.word	0x9494	; ????
     680:	94 8a       	std	Z+20, r9	; 0x14
     682:	94 94       	.word	0x9494	; ????
     684:	94 8a       	std	Z+20, r9	; 0x14
     686:	8a 8a       	std	Y+18, r8	; 0x12
     688:	94 80       	ldd	r9, Z+4	; 0x04
     68a:	62 62       	ori	r22, 0x22	; 34
     68c:	62 4e       	sbci	r22, 0xE2	; 226
     68e:	4e 4e       	sbci	r20, 0xEE	; 238
     690:	4e 44       	sbci	r20, 0x4E	; 78
     692:	4e 58       	subi	r20, 0x8E	; 142
     694:	76 80       	ldd	r7, Z+6	; 0x06
     696:	76 80       	ldd	r7, Z+6	; 0x06
     698:	80 8a       	std	Z+16, r8	; 0x10
     69a:	80 80       	ld	r8, Z
     69c:	80 76       	andi	r24, 0x60	; 96
     69e:	6c 6c       	ori	r22, 0xCC	; 204
     6a0:	76 76       	andi	r23, 0x66	; 102
     6a2:	80 80       	ld	r8, Z
     6a4:	80 8a       	std	Z+16, r8	; 0x10
     6a6:	9e 9e       	mul	r9, r30
     6a8:	94 94       	.word	0x9494	; ????
     6aa:	94 8a       	std	Z+20, r9	; 0x14
     6ac:	94 94       	.word	0x9494	; ????
     6ae:	94 8a       	std	Z+20, r9	; 0x14
     6b0:	8a 8a       	std	Y+18, r8	; 0x12
     6b2:	94 80       	ldd	r9, Z+4	; 0x04
     6b4:	6c 6c       	ori	r22, 0xCC	; 204
     6b6:	62 4e       	sbci	r22, 0xE2	; 226
     6b8:	4e 58       	subi	r20, 0x8E	; 142
     6ba:	4e 44       	sbci	r20, 0x4E	; 78
     6bc:	4e 58       	subi	r20, 0x8E	; 142
     6be:	76 80       	ldd	r7, Z+6	; 0x06
     6c0:	76 80       	ldd	r7, Z+6	; 0x06
     6c2:	80 8a       	std	Z+16, r8	; 0x10
     6c4:	80 80       	ld	r8, Z
     6c6:	80 76       	andi	r24, 0x60	; 96
     6c8:	6c 76       	andi	r22, 0x6C	; 108
     6ca:	76 76       	andi	r23, 0x66	; 102
     6cc:	80 76       	andi	r24, 0x60	; 96
     6ce:	80 8a       	std	Z+16, r8	; 0x10
     6d0:	9e 9e       	mul	r9, r30
     6d2:	94 9e       	mul	r9, r20
     6d4:	94 94       	.word	0x9494	; ????
     6d6:	94 94       	.word	0x9494	; ????
     6d8:	94 94       	.word	0x9494	; ????
     6da:	8a 8a       	std	Y+18, r8	; 0x12
     6dc:	94 80       	ldd	r9, Z+4	; 0x04
     6de:	6c 6c       	ori	r22, 0xCC	; 204
     6e0:	62 4e       	sbci	r22, 0xE2	; 226
     6e2:	4e 4e       	sbci	r20, 0xEE	; 238
     6e4:	4e 44       	sbci	r20, 0x4E	; 78
     6e6:	44 58       	subi	r20, 0x84	; 132
     6e8:	6c 76       	andi	r22, 0x6C	; 108
     6ea:	76 76       	andi	r23, 0x66	; 102
     6ec:	80 80       	ld	r8, Z
     6ee:	80 80       	ld	r8, Z
     6f0:	80 76       	andi	r24, 0x60	; 96
     6f2:	6c 6c       	ori	r22, 0xCC	; 204
     6f4:	6c 76       	andi	r22, 0x6C	; 108
     6f6:	80 76       	andi	r24, 0x60	; 96
     6f8:	76 8a       	std	Z+22, r7	; 0x16
     6fa:	94 94       	.word	0x9494	; ????
     6fc:	94 9e       	mul	r9, r20
     6fe:	94 94       	.word	0x9494	; ????
     700:	94 94       	.word	0x9494	; ????
     702:	94 94       	.word	0x9494	; ????
     704:	8a 8a       	std	Y+18, r8	; 0x12
     706:	94 80       	ldd	r9, Z+4	; 0x04
     708:	76 6c       	ori	r23, 0xC6	; 198
     70a:	62 58       	subi	r22, 0x82	; 130
     70c:	58 58       	subi	r21, 0x88	; 136
     70e:	4e 44       	sbci	r20, 0x4E	; 78
     710:	44 58       	subi	r20, 0x84	; 132
     712:	6c 76       	andi	r22, 0x6C	; 108
     714:	76 76       	andi	r23, 0x66	; 102
     716:	80 80       	ld	r8, Z
     718:	80 80       	ld	r8, Z
     71a:	80 76       	andi	r24, 0x60	; 96
     71c:	6c 76       	andi	r22, 0x6C	; 108
     71e:	6c 76       	andi	r22, 0x6C	; 108
     720:	80 76       	andi	r24, 0x60	; 96
     722:	76 8a       	std	Z+22, r7	; 0x16
     724:	94 94       	.word	0x9494	; ????
     726:	94 9e       	mul	r9, r20
     728:	94 94       	.word	0x9494	; ????
     72a:	94 94       	.word	0x9494	; ????
     72c:	94 94       	.word	0x9494	; ????
     72e:	8a 8a       	std	Y+18, r8	; 0x12
     730:	94 80       	ldd	r9, Z+4	; 0x04
     732:	76 76       	andi	r23, 0x66	; 102
     734:	62 58       	subi	r22, 0x82	; 130
     736:	58 58       	subi	r21, 0x88	; 136
     738:	4e 4e       	sbci	r20, 0xEE	; 238
     73a:	44 58       	subi	r20, 0x84	; 132
     73c:	6c 76       	andi	r22, 0x6C	; 108
     73e:	76 76       	andi	r23, 0x66	; 102
     740:	80 80       	ld	r8, Z
     742:	80 80       	ld	r8, Z
     744:	80 76       	andi	r24, 0x60	; 96
     746:	6c 6c       	ori	r22, 0xCC	; 204
     748:	6c 76       	andi	r22, 0x6C	; 108
     74a:	76 76       	andi	r23, 0x66	; 102
     74c:	76 80       	ldd	r7, Z+6	; 0x06
     74e:	94 94       	.word	0x9494	; ????
     750:	94 94       	.word	0x9494	; ????
     752:	94 8a       	std	Z+20, r9	; 0x14
     754:	94 94       	.word	0x9494	; ????
     756:	94 94       	.word	0x9494	; ????
     758:	80 8a       	std	Z+16, r8	; 0x10
     75a:	94 80       	ldd	r9, Z+4	; 0x04
     75c:	76 76       	andi	r23, 0x66	; 102
     75e:	62 58       	subi	r22, 0x82	; 130
     760:	58 58       	subi	r21, 0x88	; 136
     762:	4e 4e       	sbci	r20, 0xEE	; 238
     764:	44 58       	subi	r20, 0x84	; 132
     766:	62 76       	andi	r22, 0x62	; 98
     768:	76 76       	andi	r23, 0x66	; 102
     76a:	76 80       	ldd	r7, Z+6	; 0x06
     76c:	80 80       	ld	r8, Z
     76e:	80 76       	andi	r24, 0x60	; 96
     770:	76 6c       	ori	r23, 0xC6	; 198
     772:	6c 76       	andi	r22, 0x6C	; 108
     774:	80 76       	andi	r24, 0x60	; 96
     776:	76 80       	ldd	r7, Z+6	; 0x06
     778:	94 94       	.word	0x9494	; ????
     77a:	94 94       	.word	0x9494	; ????
     77c:	94 94       	.word	0x9494	; ????
     77e:	94 94       	.word	0x9494	; ????
     780:	94 94       	.word	0x9494	; ????
     782:	8a 94       	dec	r8
     784:	94 8a       	std	Z+20, r9	; 0x14
     786:	80 76       	andi	r24, 0x60	; 96
     788:	6c 62       	ori	r22, 0x2C	; 44
     78a:	58 58       	subi	r21, 0x88	; 136
     78c:	58 4e       	sbci	r21, 0xE8	; 232
     78e:	44 58       	subi	r20, 0x84	; 132
     790:	62 76       	andi	r22, 0x62	; 98
     792:	76 76       	andi	r23, 0x66	; 102
     794:	80 80       	ld	r8, Z
     796:	80 80       	ld	r8, Z
     798:	80 76       	andi	r24, 0x60	; 96
     79a:	76 6c       	ori	r23, 0xC6	; 198
     79c:	6c 76       	andi	r22, 0x6C	; 108
     79e:	80 76       	andi	r24, 0x60	; 96
     7a0:	76 80       	ldd	r7, Z+6	; 0x06
     7a2:	94 94       	.word	0x9494	; ????
     7a4:	94 94       	.word	0x9494	; ????
     7a6:	94 94       	.word	0x9494	; ????
     7a8:	94 94       	.word	0x9494	; ????
     7aa:	94 94       	.word	0x9494	; ????
     7ac:	8a 94       	dec	r8
     7ae:	94 8a       	std	Z+20, r9	; 0x14
     7b0:	80 76       	andi	r24, 0x60	; 96
     7b2:	6c 62       	ori	r22, 0x2C	; 44
     7b4:	58 58       	subi	r21, 0x88	; 136
     7b6:	58 4e       	sbci	r21, 0xE8	; 232
     7b8:	44 4e       	sbci	r20, 0xE4	; 228
     7ba:	62 76       	andi	r22, 0x62	; 98
     7bc:	76 76       	andi	r23, 0x66	; 102
     7be:	76 80       	ldd	r7, Z+6	; 0x06
     7c0:	80 80       	ld	r8, Z
     7c2:	80 76       	andi	r24, 0x60	; 96
     7c4:	76 6c       	ori	r23, 0xC6	; 198
     7c6:	6c 76       	andi	r22, 0x6C	; 108
     7c8:	76 80       	ldd	r7, Z+6	; 0x06
     7ca:	80 80       	ld	r8, Z
     7cc:	8a 9e       	mul	r8, r26
     7ce:	9e 94 94 94 	call	0x252928	; 0x252928 <__data_load_end+0x24fd0a>
     7d2:	8a 94       	dec	r8
     7d4:	94 94       	.word	0x9494	; ????
     7d6:	8a 8a       	std	Y+18, r8	; 0x12
     7d8:	8a 94       	dec	r8
     7da:	80 6c       	ori	r24, 0xC0	; 192
     7dc:	6c 62       	ori	r22, 0x2C	; 44
     7de:	58 4e       	sbci	r21, 0xE8	; 232
     7e0:	58 4e       	sbci	r21, 0xE8	; 232
     7e2:	4e 4e       	sbci	r20, 0xEE	; 238
     7e4:	58 76       	andi	r21, 0x68	; 104
     7e6:	80 76       	andi	r24, 0x60	; 96
     7e8:	80 80       	ld	r8, Z
     7ea:	8a 80       	ldd	r8, Y+2	; 0x02
     7ec:	80 80       	ld	r8, Z
     7ee:	76 76       	andi	r23, 0x66	; 102
     7f0:	76 76       	andi	r23, 0x66	; 102
     7f2:	76 80       	ldd	r7, Z+6	; 0x06
     7f4:	76 80       	ldd	r7, Z+6	; 0x06
     7f6:	8a 9e       	mul	r8, r26
     7f8:	9e 94 94 94 	call	0x252928	; 0x252928 <__data_load_end+0x24fd0a>
     7fc:	8a 94       	dec	r8
     7fe:	94 94       	.word	0x9494	; ????
     800:	94 8a       	std	Z+20, r9	; 0x14
     802:	8a 94       	dec	r8
     804:	80 6c       	ori	r24, 0xC0	; 192
     806:	6c 62       	ori	r22, 0x2C	; 44
     808:	58 4e       	sbci	r21, 0xE8	; 232
     80a:	58 4e       	sbci	r21, 0xE8	; 232
     80c:	44 44       	sbci	r20, 0x44	; 68
     80e:	58 6c       	ori	r21, 0xC8	; 200
     810:	76 76       	andi	r23, 0x66	; 102
     812:	76 76       	andi	r23, 0x66	; 102
     814:	80 80       	ld	r8, Z
     816:	80 80       	ld	r8, Z
     818:	76 6c       	ori	r23, 0xC6	; 198
     81a:	6c 6c       	ori	r22, 0xCC	; 204
     81c:	76 80       	ldd	r7, Z+6	; 0x06
     81e:	76 76       	andi	r23, 0x66	; 102
     820:	8a 94       	dec	r8
     822:	94 94       	.word	0x9494	; ????
     824:	9e 94 94 94 	call	0x252928	; 0x252928 <__data_load_end+0x24fd0a>
     828:	94 94       	.word	0x9494	; ????
     82a:	94 8a       	std	Z+20, r9	; 0x14
     82c:	8a 94       	dec	r8
     82e:	80 76       	andi	r24, 0x60	; 96
     830:	6c 62       	ori	r22, 0x2C	; 44
     832:	58 58       	subi	r21, 0x88	; 136
     834:	58 4e       	sbci	r21, 0xE8	; 232
     836:	4e 44       	sbci	r20, 0x4E	; 78
     838:	58 6c       	ori	r21, 0xC8	; 200
     83a:	76 76       	andi	r23, 0x66	; 102
     83c:	76 80       	ldd	r7, Z+6	; 0x06
     83e:	80 80       	ld	r8, Z
     840:	80 80       	ld	r8, Z
     842:	76 6c       	ori	r23, 0xC6	; 198
     844:	76 6c       	ori	r23, 0xC6	; 198
     846:	76 80       	ldd	r7, Z+6	; 0x06
     848:	76 76       	andi	r23, 0x66	; 102
     84a:	8a 94       	dec	r8
     84c:	94 94       	.word	0x9494	; ????
     84e:	9e 94 94 94 	call	0x252928	; 0x252928 <__data_load_end+0x24fd0a>
     852:	94 94       	.word	0x9494	; ????
     854:	94 8a       	std	Z+20, r9	; 0x14
     856:	8a 9e       	mul	r8, r26
     858:	8a 76       	andi	r24, 0x6A	; 106
     85a:	76 6c       	ori	r23, 0xC6	; 198
     85c:	58 58       	subi	r21, 0x88	; 136
     85e:	58 4e       	sbci	r21, 0xE8	; 232
     860:	4e 44       	sbci	r20, 0x4E	; 78
     862:	58 6c       	ori	r21, 0xC8	; 200
     864:	76 76       	andi	r23, 0x66	; 102
     866:	76 80       	ldd	r7, Z+6	; 0x06
     868:	80 80       	ld	r8, Z
     86a:	80 80       	ld	r8, Z
     86c:	76 6c       	ori	r23, 0xC6	; 198
     86e:	76 6c       	ori	r23, 0xC6	; 198
     870:	76 76       	andi	r23, 0x66	; 102
     872:	76 76       	andi	r23, 0x66	; 102
     874:	80 94       	com	r8
     876:	94 94       	.word	0x9494	; ????
     878:	94 94       	.word	0x9494	; ????
     87a:	8a 94       	dec	r8
     87c:	94 94       	.word	0x9494	; ????
     87e:	94 8a       	std	Z+20, r9	; 0x14
     880:	8a 94       	dec	r8
     882:	80 76       	andi	r24, 0x60	; 96
     884:	76 6c       	ori	r23, 0xC6	; 198
     886:	58 58       	subi	r21, 0x88	; 136
     888:	58 4e       	sbci	r21, 0xE8	; 232
     88a:	4e 44       	sbci	r20, 0x4E	; 78
     88c:	4e 62       	ori	r20, 0x2E	; 46
     88e:	76 76       	andi	r23, 0x66	; 102
     890:	76 76       	andi	r23, 0x66	; 102
     892:	80 80       	ld	r8, Z
     894:	80 80       	ld	r8, Z
     896:	76 76       	andi	r23, 0x66	; 102
     898:	6c 6c       	ori	r22, 0xCC	; 204
     89a:	76 80       	ldd	r7, Z+6	; 0x06
     89c:	76 76       	andi	r23, 0x66	; 102
     89e:	80 94       	com	r8
     8a0:	94 94       	.word	0x9494	; ????
     8a2:	94 94       	.word	0x9494	; ????
     8a4:	94 94       	.word	0x9494	; ????
     8a6:	94 94       	.word	0x9494	; ????
     8a8:	94 8a       	std	Z+20, r9	; 0x14
     8aa:	94 94       	.word	0x9494	; ????
     8ac:	8a 80       	ldd	r8, Y+2	; 0x02
     8ae:	76 6c       	ori	r23, 0xC6	; 198
     8b0:	62 58       	subi	r22, 0x82	; 130
     8b2:	58 58       	subi	r21, 0x88	; 136
     8b4:	4e 44       	sbci	r20, 0x4E	; 78
     8b6:	58 62       	ori	r21, 0x28	; 40
     8b8:	76 76       	andi	r23, 0x66	; 102
     8ba:	76 80       	ldd	r7, Z+6	; 0x06
     8bc:	80 80       	ld	r8, Z
     8be:	80 80       	ld	r8, Z
     8c0:	76 76       	andi	r23, 0x66	; 102
     8c2:	76 6c       	ori	r23, 0xC6	; 198
     8c4:	76 80       	ldd	r7, Z+6	; 0x06
     8c6:	76 76       	andi	r23, 0x66	; 102
     8c8:	80 94       	com	r8
     8ca:	94 94       	.word	0x9494	; ????
     8cc:	94 94       	.word	0x9494	; ????
     8ce:	94 94       	.word	0x9494	; ????
     8d0:	94 94       	.word	0x9494	; ????
     8d2:	94 8a       	std	Z+20, r9	; 0x14
     8d4:	94 94       	.word	0x9494	; ????
     8d6:	8a 80       	ldd	r8, Y+2	; 0x02
     8d8:	76 6c       	ori	r23, 0xC6	; 198
     8da:	62 58       	subi	r22, 0x82	; 130
     8dc:	58 58       	subi	r21, 0x88	; 136
     8de:	4e 44       	sbci	r20, 0x4E	; 78
     8e0:	4e 62       	ori	r20, 0x2E	; 46
     8e2:	76 76       	andi	r23, 0x66	; 102
     8e4:	76 76       	andi	r23, 0x66	; 102
     8e6:	80 80       	ld	r8, Z
     8e8:	80 80       	ld	r8, Z
     8ea:	80 76       	andi	r24, 0x60	; 96
     8ec:	6c 6c       	ori	r22, 0xCC	; 204
     8ee:	76 76       	andi	r23, 0x66	; 102
     8f0:	80 80       	ld	r8, Z
     8f2:	80 8a       	std	Z+16, r8	; 0x10
     8f4:	9e 9e       	mul	r9, r30
     8f6:	94 94       	.word	0x9494	; ????
     8f8:	94 8a       	std	Z+20, r9	; 0x14
     8fa:	94 94       	.word	0x9494	; ????
     8fc:	94 8a       	std	Z+20, r9	; 0x14
     8fe:	8a 8a       	std	Y+18, r8	; 0x12
     900:	94 80       	ldd	r9, Z+4	; 0x04
     902:	6c 6c       	ori	r22, 0xCC	; 204
     904:	62 58       	subi	r22, 0x82	; 130
     906:	4e 58       	subi	r20, 0x8E	; 142
     908:	4e 4e       	sbci	r20, 0xEE	; 238
     90a:	4e 58       	subi	r20, 0x8E	; 142
     90c:	76 80       	ldd	r7, Z+6	; 0x06
     90e:	76 80       	ldd	r7, Z+6	; 0x06
     910:	80 8a       	std	Z+16, r8	; 0x10
     912:	8a 80       	ldd	r8, Y+2	; 0x02
     914:	80 76       	andi	r24, 0x60	; 96
     916:	76 76       	andi	r23, 0x66	; 102
     918:	76 76       	andi	r23, 0x66	; 102
     91a:	80 76       	andi	r24, 0x60	; 96
     91c:	80 8a       	std	Z+16, r8	; 0x10
     91e:	9e 9e       	mul	r9, r30
     920:	94 94       	.word	0x9494	; ????
     922:	94 8a       	std	Z+20, r9	; 0x14
     924:	94 94       	.word	0x9494	; ????
     926:	94 8a       	std	Z+20, r9	; 0x14
     928:	8a 8a       	std	Y+18, r8	; 0x12
     92a:	94 80       	ldd	r9, Z+4	; 0x04
     92c:	6c 6c       	ori	r22, 0xCC	; 204
     92e:	62 58       	subi	r22, 0x82	; 130
     930:	4e 58       	subi	r20, 0x8E	; 142
     932:	4e 44       	sbci	r20, 0x4E	; 78
     934:	44 58       	subi	r20, 0x84	; 132
     936:	6c 76       	andi	r22, 0x6C	; 108
     938:	76 76       	andi	r23, 0x66	; 102
     93a:	76 80       	ldd	r7, Z+6	; 0x06
     93c:	80 80       	ld	r8, Z
     93e:	80 76       	andi	r24, 0x60	; 96
     940:	6c 6c       	ori	r22, 0xCC	; 204
     942:	76 76       	andi	r23, 0x66	; 102
     944:	80 76       	andi	r24, 0x60	; 96
     946:	76 8a       	std	Z+22, r7	; 0x16
     948:	94 94       	.word	0x9494	; ????
     94a:	94 94       	.word	0x9494	; ????
     94c:	94 94       	.word	0x9494	; ????
     94e:	94 94       	.word	0x9494	; ????
     950:	94 94       	.word	0x9494	; ????
     952:	8a 8a       	std	Y+18, r8	; 0x12
     954:	94 80       	ldd	r9, Z+4	; 0x04
     956:	76 6c       	ori	r23, 0xC6	; 198
     958:	62 58       	subi	r22, 0x82	; 130
     95a:	58 58       	subi	r21, 0x88	; 136
     95c:	4e 4e       	sbci	r20, 0xEE	; 238
     95e:	4e 58       	subi	r20, 0x8E	; 142
     960:	6c 76       	andi	r22, 0x6C	; 108
     962:	76 76       	andi	r23, 0x66	; 102
     964:	80 80       	ld	r8, Z
     966:	80 80       	ld	r8, Z
     968:	80 76       	andi	r24, 0x60	; 96
     96a:	6c 76       	andi	r22, 0x6C	; 108
     96c:	6c 76       	andi	r22, 0x6C	; 108
     96e:	80 76       	andi	r24, 0x60	; 96
     970:	76 8a       	std	Z+22, r7	; 0x16
     972:	94 94       	.word	0x9494	; ????
     974:	94 94       	.word	0x9494	; ????
     976:	94 94       	.word	0x9494	; ????
     978:	94 94       	.word	0x9494	; ????
     97a:	94 94       	.word	0x9494	; ????
     97c:	8a 8a       	std	Y+18, r8	; 0x12
     97e:	94 8a       	std	Z+20, r9	; 0x14
     980:	76 76       	andi	r23, 0x66	; 102
     982:	6c 58       	subi	r22, 0x8C	; 140
     984:	58 58       	subi	r21, 0x88	; 136
     986:	58 4e       	sbci	r21, 0xE8	; 232
     988:	44 58       	subi	r20, 0x84	; 132
     98a:	6c 76       	andi	r22, 0x6C	; 108
     98c:	76 76       	andi	r23, 0x66	; 102
     98e:	80 80       	ld	r8, Z
     990:	80 80       	ld	r8, Z
     992:	80 76       	andi	r24, 0x60	; 96
     994:	6c 76       	andi	r22, 0x6C	; 108
     996:	6c 76       	andi	r22, 0x6C	; 108
     998:	80 76       	andi	r24, 0x60	; 96
     99a:	76 80       	ldd	r7, Z+6	; 0x06
     99c:	94 94       	.word	0x9494	; ????
     99e:	94 94       	.word	0x9494	; ????
     9a0:	94 8a       	std	Z+20, r9	; 0x14
     9a2:	94 94       	.word	0x9494	; ????
     9a4:	94 94       	.word	0x9494	; ????
     9a6:	8a 8a       	std	Y+18, r8	; 0x12
     9a8:	94 8a       	std	Z+20, r9	; 0x14
     9aa:	76 76       	andi	r23, 0x66	; 102
     9ac:	6c 58       	subi	r22, 0x8C	; 140
     9ae:	58 58       	subi	r21, 0x88	; 136
     9b0:	58 4e       	sbci	r21, 0xE8	; 232
     9b2:	44 58       	subi	r20, 0x84	; 132
     9b4:	62 76       	andi	r22, 0x62	; 98
     9b6:	76 76       	andi	r23, 0x66	; 102
     9b8:	76 80       	ldd	r7, Z+6	; 0x06
     9ba:	80 80       	ld	r8, Z
     9bc:	80 76       	andi	r24, 0x60	; 96
     9be:	76 6c       	ori	r23, 0xC6	; 198
     9c0:	6c 76       	andi	r22, 0x6C	; 108
     9c2:	80 76       	andi	r24, 0x60	; 96
     9c4:	76 80       	ldd	r7, Z+6	; 0x06
     9c6:	94 94       	.word	0x9494	; ????
     9c8:	94 94       	.word	0x9494	; ????
     9ca:	94 8a       	std	Z+20, r9	; 0x14
     9cc:	94 94       	.word	0x9494	; ????
     9ce:	94 94       	.word	0x9494	; ????
     9d0:	8a 8a       	std	Y+18, r8	; 0x12
     9d2:	94 8a       	std	Z+20, r9	; 0x14
     9d4:	80 76       	andi	r24, 0x60	; 96
     9d6:	6c 62       	ori	r22, 0x2C	; 44
     9d8:	58 58       	subi	r21, 0x88	; 136
     9da:	58 4e       	sbci	r21, 0xE8	; 232
     9dc:	44 58       	subi	r20, 0x84	; 132
     9de:	62 76       	andi	r22, 0x62	; 98
     9e0:	76 76       	andi	r23, 0x66	; 102
     9e2:	80 80       	ld	r8, Z
     9e4:	80 80       	ld	r8, Z
     9e6:	80 80       	ld	r8, Z
     9e8:	76 76       	andi	r23, 0x66	; 102
     9ea:	6c 76       	andi	r22, 0x6C	; 108
     9ec:	80 76       	andi	r24, 0x60	; 96
     9ee:	76 80       	ldd	r7, Z+6	; 0x06
     9f0:	8a 94       	dec	r8
     9f2:	94 94       	.word	0x9494	; ????
     9f4:	94 94       	.word	0x9494	; ????
     9f6:	94 94       	.word	0x9494	; ????
     9f8:	94 94       	.word	0x9494	; ????
     9fa:	8a 8a       	std	Y+18, r8	; 0x12
     9fc:	94 8a       	std	Z+20, r9	; 0x14
     9fe:	80 76       	andi	r24, 0x60	; 96
     a00:	6c 62       	ori	r22, 0x2C	; 44
     a02:	58 58       	subi	r21, 0x88	; 136
     a04:	58 4e       	sbci	r21, 0xE8	; 232
     a06:	4e 4e       	sbci	r20, 0xEE	; 238
     a08:	62 76       	andi	r22, 0x62	; 98
     a0a:	76 76       	andi	r23, 0x66	; 102
     a0c:	76 80       	ldd	r7, Z+6	; 0x06
     a0e:	80 80       	ld	r8, Z
     a10:	80 80       	ld	r8, Z
     a12:	76 6c       	ori	r23, 0xC6	; 198
     a14:	6c 76       	andi	r22, 0x6C	; 108
     a16:	76 80       	ldd	r7, Z+6	; 0x06
     a18:	80 76       	andi	r24, 0x60	; 96
     a1a:	8a 94       	dec	r8
     a1c:	9e 94 94 94 	call	0x252928	; 0x252928 <__data_load_end+0x24fd0a>
     a20:	8a 94       	dec	r8
     a22:	94 94       	.word	0x9494	; ????
     a24:	8a 8a       	std	Y+18, r8	; 0x12
     a26:	8a 94       	dec	r8
     a28:	8a 6c       	ori	r24, 0xCA	; 202
     a2a:	6c 62       	ori	r22, 0x2C	; 44
     a2c:	58 58       	subi	r21, 0x88	; 136
     a2e:	58 4e       	sbci	r21, 0xE8	; 232
     a30:	4e 4e       	sbci	r20, 0xEE	; 238
     a32:	58 76       	andi	r21, 0x68	; 104
     a34:	80 76       	andi	r24, 0x60	; 96
     a36:	80 80       	ld	r8, Z
     a38:	8a 8a       	std	Y+18, r8	; 0x12
     a3a:	80 80       	ld	r8, Z
     a3c:	76 76       	andi	r23, 0x66	; 102
     a3e:	76 76       	andi	r23, 0x66	; 102
     a40:	76 80       	ldd	r7, Z+6	; 0x06
     a42:	80 80       	ld	r8, Z
     a44:	8a 94       	dec	r8
     a46:	9e 94 94 94 	call	0x252928	; 0x252928 <__data_load_end+0x24fd0a>
     a4a:	8a 94       	dec	r8
     a4c:	94 94       	.word	0x9494	; ????
     a4e:	8a 8a       	std	Y+18, r8	; 0x12
     a50:	8a 94       	dec	r8
     a52:	80 6c       	ori	r24, 0xC0	; 192
     a54:	6c 62       	ori	r22, 0x2C	; 44
     a56:	58 58       	subi	r21, 0x88	; 136
     a58:	58 4e       	sbci	r21, 0xE8	; 232
     a5a:	4e 4e       	sbci	r20, 0xEE	; 238
     a5c:	58 6c       	ori	r21, 0xC8	; 200
     a5e:	76 76       	andi	r23, 0x66	; 102
     a60:	76 76       	andi	r23, 0x66	; 102
     a62:	80 80       	ld	r8, Z
     a64:	80 80       	ld	r8, Z
     a66:	76 6c       	ori	r23, 0xC6	; 198
     a68:	6c 76       	andi	r22, 0x6C	; 108
     a6a:	76 80       	ldd	r7, Z+6	; 0x06
     a6c:	76 76       	andi	r23, 0x66	; 102
     a6e:	80 94       	com	r8
     a70:	94 94       	.word	0x9494	; ????
     a72:	94 94       	.word	0x9494	; ????
     a74:	8a 94       	dec	r8
     a76:	94 94       	.word	0x9494	; ????
     a78:	94 8a       	std	Z+20, r9	; 0x14
     a7a:	8a 94       	dec	r8
     a7c:	8a 76       	andi	r24, 0x6A	; 106
     a7e:	76 62       	ori	r23, 0x26	; 38
     a80:	58 58       	subi	r21, 0x88	; 136
     a82:	58 58       	subi	r21, 0x88	; 136
     a84:	4e 4e       	sbci	r20, 0xEE	; 238
     a86:	58 6c       	ori	r21, 0xC8	; 200
     a88:	76 76       	andi	r23, 0x66	; 102
     a8a:	76 80       	ldd	r7, Z+6	; 0x06
     a8c:	80 80       	ld	r8, Z
     a8e:	80 80       	ld	r8, Z
     a90:	76 76       	andi	r23, 0x66	; 102
     a92:	76 6c       	ori	r23, 0xC6	; 198
     a94:	76 80       	ldd	r7, Z+6	; 0x06
     a96:	76 76       	andi	r23, 0x66	; 102
     a98:	80 94       	com	r8
     a9a:	94 94       	.word	0x9494	; ????
     a9c:	94 94       	.word	0x9494	; ????
     a9e:	94 94       	.word	0x9494	; ????
     aa0:	94 94       	.word	0x9494	; ????
     aa2:	94 8a       	std	Z+20, r9	; 0x14
     aa4:	8a 94       	dec	r8
     aa6:	8a 76       	andi	r24, 0x6A	; 106
     aa8:	76 6c       	ori	r23, 0xC6	; 198
     aaa:	62 58       	subi	r22, 0x82	; 130
     aac:	58 58       	subi	r21, 0x88	; 136
     aae:	4e 44       	sbci	r20, 0x4E	; 78
     ab0:	58 6c       	ori	r21, 0xC8	; 200
     ab2:	76 76       	andi	r23, 0x66	; 102
     ab4:	76 80       	ldd	r7, Z+6	; 0x06
     ab6:	80 80       	ld	r8, Z
     ab8:	80 80       	ld	r8, Z
     aba:	76 76       	andi	r23, 0x66	; 102
     abc:	76 6c       	ori	r23, 0xC6	; 198
     abe:	76 80       	ldd	r7, Z+6	; 0x06
     ac0:	76 76       	andi	r23, 0x66	; 102
     ac2:	80 94       	com	r8
     ac4:	94 94       	.word	0x9494	; ????
     ac6:	94 94       	.word	0x9494	; ????
     ac8:	8a 94       	dec	r8
     aca:	94 94       	.word	0x9494	; ????
     acc:	94 8a       	std	Z+20, r9	; 0x14
     ace:	8a 94       	dec	r8
     ad0:	8a 76       	andi	r24, 0x6A	; 106
     ad2:	76 6c       	ori	r23, 0xC6	; 198
     ad4:	62 58       	subi	r22, 0x82	; 130
     ad6:	58 58       	subi	r21, 0x88	; 136
     ad8:	4e 44       	sbci	r20, 0x4E	; 78
     ada:	58 62       	ori	r21, 0x28	; 40
     adc:	76 76       	andi	r23, 0x66	; 102
     ade:	76 76       	andi	r23, 0x66	; 102
     ae0:	80 80       	ld	r8, Z
     ae2:	80 80       	ld	r8, Z
     ae4:	76 76       	andi	r23, 0x66	; 102
     ae6:	76 6c       	ori	r23, 0xC6	; 198
     ae8:	76 80       	ldd	r7, Z+6	; 0x06
     aea:	76 76       	andi	r23, 0x66	; 102
     aec:	80 94       	com	r8
     aee:	94 94       	.word	0x9494	; ????
     af0:	94 94       	.word	0x9494	; ????
     af2:	8a 94       	dec	r8
     af4:	94 94       	.word	0x9494	; ????
     af6:	94 8a       	std	Z+20, r9	; 0x14
     af8:	8a 94       	dec	r8
     afa:	8a 80       	ldd	r8, Y+2	; 0x02
     afc:	76 6c       	ori	r23, 0xC6	; 198
     afe:	62 58       	subi	r22, 0x82	; 130
     b00:	58 58       	subi	r21, 0x88	; 136
     b02:	4e 44       	sbci	r20, 0x4E	; 78
     b04:	58 62       	ori	r21, 0x28	; 40
     b06:	76 76       	andi	r23, 0x66	; 102
     b08:	76 76       	andi	r23, 0x66	; 102
     b0a:	80 80       	ld	r8, Z
     b0c:	80 80       	ld	r8, Z
     b0e:	80 76       	andi	r24, 0x60	; 96
     b10:	76 76       	andi	r23, 0x66	; 102
     b12:	76 80       	ldd	r7, Z+6	; 0x06
     b14:	76 76       	andi	r23, 0x66	; 102
     b16:	80 8a       	std	Z+16, r8	; 0x10
     b18:	94 94       	.word	0x9494	; ????
     b1a:	94 94       	.word	0x9494	; ????
     b1c:	8a 94       	dec	r8
     b1e:	94 94       	.word	0x9494	; ????
     b20:	94 8a       	std	Z+20, r9	; 0x14
     b22:	8a 94       	dec	r8
     b24:	8a 80       	ldd	r8, Y+2	; 0x02
     b26:	76 6c       	ori	r23, 0xC6	; 198
     b28:	62 62       	ori	r22, 0x22	; 34
     b2a:	58 58       	subi	r21, 0x88	; 136
     b2c:	4e 4e       	sbci	r20, 0xEE	; 238
     b2e:	4e 62       	ori	r20, 0x2E	; 46
     b30:	76 76       	andi	r23, 0x66	; 102
     b32:	76 76       	andi	r23, 0x66	; 102
     b34:	80 80       	ld	r8, Z
     b36:	80 80       	ld	r8, Z
     b38:	80 76       	andi	r24, 0x60	; 96
     b3a:	6c 6c       	ori	r22, 0xCC	; 204
     b3c:	76 76       	andi	r23, 0x66	; 102
     b3e:	80 80       	ld	r8, Z
     b40:	76 8a       	std	Z+22, r7	; 0x16
     b42:	94 9e       	mul	r9, r20
     b44:	94 94       	.word	0x9494	; ????
     b46:	94 8a       	std	Z+20, r9	; 0x14
     b48:	94 94       	.word	0x9494	; ????
     b4a:	94 8a       	std	Z+20, r9	; 0x14
     b4c:	8a 8a       	std	Y+18, r8	; 0x12
     b4e:	94 8a       	std	Z+20, r9	; 0x14
     b50:	6c 6c       	ori	r22, 0xCC	; 204
     b52:	6c 58       	subi	r22, 0x8C	; 140
     b54:	58 58       	subi	r21, 0x88	; 136
     b56:	4e 4e       	sbci	r20, 0xEE	; 238
     b58:	4e 58       	subi	r20, 0x8E	; 142
     b5a:	76 80       	ldd	r7, Z+6	; 0x06
     b5c:	76 80       	ldd	r7, Z+6	; 0x06
     b5e:	80 8a       	std	Z+16, r8	; 0x10
     b60:	8a 80       	ldd	r8, Y+2	; 0x02
     b62:	80 76       	andi	r24, 0x60	; 96
     b64:	76 76       	andi	r23, 0x66	; 102
     b66:	76 76       	andi	r23, 0x66	; 102
     b68:	80 80       	ld	r8, Z
     b6a:	80 8a       	std	Z+16, r8	; 0x10
     b6c:	94 9e       	mul	r9, r20
     b6e:	94 94       	.word	0x9494	; ????
     b70:	94 8a       	std	Z+20, r9	; 0x14
     b72:	94 94       	.word	0x9494	; ????
     b74:	94 8a       	std	Z+20, r9	; 0x14
     b76:	8a 8a       	std	Y+18, r8	; 0x12
     b78:	94 8a       	std	Z+20, r9	; 0x14
     b7a:	6c 6c       	ori	r22, 0xCC	; 204
     b7c:	62 58       	subi	r22, 0x82	; 130
     b7e:	58 58       	subi	r21, 0x88	; 136
     b80:	4e 4e       	sbci	r20, 0xEE	; 238
     b82:	4e 58       	subi	r20, 0x8E	; 142
     b84:	6c 76       	andi	r22, 0x6C	; 108
     b86:	76 76       	andi	r23, 0x66	; 102
     b88:	76 80       	ldd	r7, Z+6	; 0x06
     b8a:	80 80       	ld	r8, Z
     b8c:	80 76       	andi	r24, 0x60	; 96
     b8e:	6c 6c       	ori	r22, 0xCC	; 204
     b90:	76 76       	andi	r23, 0x66	; 102
     b92:	80 76       	andi	r24, 0x60	; 96
     b94:	76 80       	ldd	r7, Z+6	; 0x06
     b96:	94 94       	.word	0x9494	; ????
     b98:	94 94       	.word	0x9494	; ????
     b9a:	94 8a       	std	Z+20, r9	; 0x14
     b9c:	94 94       	.word	0x9494	; ????
     b9e:	94 94       	.word	0x9494	; ????
     ba0:	8a 8a       	std	Y+18, r8	; 0x12
     ba2:	94 8a       	std	Z+20, r9	; 0x14
     ba4:	76 76       	andi	r23, 0x66	; 102
     ba6:	6c 58       	subi	r22, 0x8C	; 140
     ba8:	58 58       	subi	r21, 0x88	; 136
     baa:	58 4e       	sbci	r21, 0xE8	; 232
     bac:	4e 58       	subi	r20, 0x8E	; 142
     bae:	6c 76       	andi	r22, 0x6C	; 108
     bb0:	76 76       	andi	r23, 0x66	; 102
     bb2:	80 80       	ld	r8, Z
     bb4:	80 80       	ld	r8, Z
     bb6:	80 76       	andi	r24, 0x60	; 96
     bb8:	76 76       	andi	r23, 0x66	; 102
     bba:	76 76       	andi	r23, 0x66	; 102
     bbc:	80 76       	andi	r24, 0x60	; 96
     bbe:	76 80       	ldd	r7, Z+6	; 0x06
     bc0:	94 94       	.word	0x9494	; ????
     bc2:	94 94       	.word	0x9494	; ????
     bc4:	94 8a       	std	Z+20, r9	; 0x14
     bc6:	94 94       	.word	0x9494	; ????
     bc8:	94 94       	.word	0x9494	; ????
     bca:	8a 8a       	std	Y+18, r8	; 0x12
     bcc:	94 8a       	std	Z+20, r9	; 0x14
     bce:	76 76       	andi	r23, 0x66	; 102
     bd0:	6c 62       	ori	r22, 0x2C	; 44
     bd2:	58 58       	subi	r21, 0x88	; 136
     bd4:	58 4e       	sbci	r21, 0xE8	; 232
     bd6:	4e 58       	subi	r20, 0x8E	; 142
     bd8:	6c 76       	andi	r22, 0x6C	; 108
     bda:	76 76       	andi	r23, 0x66	; 102
     bdc:	80 80       	ld	r8, Z
     bde:	80 80       	ld	r8, Z
     be0:	80 76       	andi	r24, 0x60	; 96
     be2:	76 76       	andi	r23, 0x66	; 102
     be4:	6c 76       	andi	r22, 0x6C	; 108
     be6:	80 76       	andi	r24, 0x60	; 96
     be8:	76 80       	ldd	r7, Z+6	; 0x06
     bea:	94 94       	.word	0x9494	; ????
     bec:	94 94       	.word	0x9494	; ????
     bee:	94 8a       	std	Z+20, r9	; 0x14
     bf0:	94 94       	.word	0x9494	; ????
     bf2:	94 94       	.word	0x9494	; ????
     bf4:	8a 8a       	std	Y+18, r8	; 0x12
     bf6:	94 8a       	std	Z+20, r9	; 0x14
     bf8:	76 76       	andi	r23, 0x66	; 102
     bfa:	6c 62       	ori	r22, 0x2C	; 44
     bfc:	58 58       	subi	r21, 0x88	; 136
     bfe:	58 4e       	sbci	r21, 0xE8	; 232
     c00:	44 58       	subi	r20, 0x84	; 132
     c02:	62 76       	andi	r22, 0x62	; 98
     c04:	76 76       	andi	r23, 0x66	; 102
     c06:	76 80       	ldd	r7, Z+6	; 0x06
     c08:	80 80       	ld	r8, Z
     c0a:	80 76       	andi	r24, 0x60	; 96
     c0c:	76 76       	andi	r23, 0x66	; 102
     c0e:	6c 76       	andi	r22, 0x6C	; 108
     c10:	80 76       	andi	r24, 0x60	; 96
     c12:	76 80       	ldd	r7, Z+6	; 0x06
     c14:	8a 94       	dec	r8
     c16:	94 94       	.word	0x9494	; ????
     c18:	94 8a       	std	Z+20, r9	; 0x14
     c1a:	94 94       	.word	0x9494	; ????
     c1c:	94 94       	.word	0x9494	; ????
     c1e:	8a 8a       	std	Y+18, r8	; 0x12
     c20:	94 8a       	std	Z+20, r9	; 0x14
     c22:	80 76       	andi	r24, 0x60	; 96
     c24:	6c 62       	ori	r22, 0x2C	; 44
     c26:	62 58       	subi	r22, 0x82	; 130
     c28:	58 4e       	sbci	r21, 0xE8	; 232
     c2a:	4e 58       	subi	r20, 0x8E	; 142
     c2c:	62 76       	andi	r22, 0x62	; 98
     c2e:	76 76       	andi	r23, 0x66	; 102
     c30:	76 80       	ldd	r7, Z+6	; 0x06
     c32:	80 80       	ld	r8, Z
     c34:	80 80       	ld	r8, Z
     c36:	76 76       	andi	r23, 0x66	; 102
     c38:	76 76       	andi	r23, 0x66	; 102
     c3a:	80 76       	andi	r24, 0x60	; 96
     c3c:	76 80       	ldd	r7, Z+6	; 0x06
     c3e:	8a 94       	dec	r8
     c40:	94 94       	.word	0x9494	; ????
     c42:	94 8a       	std	Z+20, r9	; 0x14
     c44:	94 94       	.word	0x9494	; ????
     c46:	94 94       	.word	0x9494	; ????
     c48:	8a 8a       	std	Y+18, r8	; 0x12
     c4a:	94 8a       	std	Z+20, r9	; 0x14
     c4c:	80 76       	andi	r24, 0x60	; 96
     c4e:	6c 62       	ori	r22, 0x2C	; 44
     c50:	62 58       	subi	r22, 0x82	; 130
     c52:	62 4e       	sbci	r22, 0xE2	; 226
     c54:	4e 4e       	sbci	r20, 0xEE	; 238
     c56:	62 76       	andi	r22, 0x62	; 98
     c58:	76 76       	andi	r23, 0x66	; 102
     c5a:	76 80       	ldd	r7, Z+6	; 0x06
     c5c:	80 80       	ld	r8, Z
     c5e:	80 80       	ld	r8, Z
     c60:	76 6c       	ori	r23, 0xC6	; 198
     c62:	6c 76       	andi	r22, 0x6C	; 108
     c64:	76 80       	ldd	r7, Z+6	; 0x06
     c66:	80 76       	andi	r24, 0x60	; 96
     c68:	8a 94       	dec	r8
     c6a:	9e 94 94 94 	call	0x252928	; 0x252928 <__data_load_end+0x24fd0a>
     c6e:	8a 94       	dec	r8
     c70:	94 94       	.word	0x9494	; ????
     c72:	8a 8a       	std	Y+18, r8	; 0x12
     c74:	8a 94       	dec	r8
     c76:	8a 6c       	ori	r24, 0xCA	; 202
     c78:	6c 6c       	ori	r22, 0xCC	; 204
     c7a:	58 58       	subi	r21, 0x88	; 136
     c7c:	58 58       	subi	r21, 0x88	; 136
     c7e:	4e 4e       	sbci	r20, 0xEE	; 238
     c80:	58 6c       	ori	r21, 0xC8	; 200
     c82:	80 76       	andi	r24, 0x60	; 96
     c84:	80 80       	ld	r8, Z
     c86:	8a 8a       	std	Y+18, r8	; 0x12
     c88:	80 80       	ld	r8, Z
     c8a:	76 76       	andi	r23, 0x66	; 102
     c8c:	76 76       	andi	r23, 0x66	; 102
     c8e:	76 80       	ldd	r7, Z+6	; 0x06
     c90:	80 80       	ld	r8, Z
     c92:	8a 94       	dec	r8
     c94:	94 94       	.word	0x9494	; ????
     c96:	94 94       	.word	0x9494	; ????
     c98:	8a 94       	dec	r8
     c9a:	94 94       	.word	0x9494	; ????
     c9c:	8a 8a       	std	Y+18, r8	; 0x12
     c9e:	8a 94       	dec	r8
     ca0:	8a 6c       	ori	r24, 0xCA	; 202
     ca2:	6c 62       	ori	r22, 0x2C	; 44
     ca4:	58 58       	subi	r21, 0x88	; 136
     ca6:	58 58       	subi	r21, 0x88	; 136
     ca8:	4e 4e       	sbci	r20, 0xEE	; 238
     caa:	58 6c       	ori	r21, 0xC8	; 200
     cac:	76 76       	andi	r23, 0x66	; 102
     cae:	76 76       	andi	r23, 0x66	; 102
     cb0:	80 80       	ld	r8, Z
     cb2:	80 80       	ld	r8, Z
     cb4:	76 6c       	ori	r23, 0xC6	; 198
     cb6:	6c 76       	andi	r22, 0x6C	; 108
     cb8:	76 80       	ldd	r7, Z+6	; 0x06
     cba:	76 76       	andi	r23, 0x66	; 102
     cbc:	80 94       	com	r8
     cbe:	94 94       	.word	0x9494	; ????
     cc0:	94 94       	.word	0x9494	; ????
     cc2:	8a 94       	dec	r8
     cc4:	94 94       	.word	0x9494	; ????
     cc6:	94 8a       	std	Z+20, r9	; 0x14
     cc8:	8a 94       	dec	r8
     cca:	8a 76       	andi	r24, 0x6A	; 106
     ccc:	76 6c       	ori	r23, 0xC6	; 198
     cce:	58 58       	subi	r21, 0x88	; 136
     cd0:	58 58       	subi	r21, 0x88	; 136
     cd2:	4e 4e       	sbci	r20, 0xEE	; 238
     cd4:	58 6c       	ori	r21, 0xC8	; 200
     cd6:	76 76       	andi	r23, 0x66	; 102
     cd8:	76 76       	andi	r23, 0x66	; 102
     cda:	80 80       	ld	r8, Z
     cdc:	80 80       	ld	r8, Z
     cde:	76 76       	andi	r23, 0x66	; 102
     ce0:	76 76       	andi	r23, 0x66	; 102
     ce2:	76 80       	ldd	r7, Z+6	; 0x06
     ce4:	76 76       	andi	r23, 0x66	; 102
     ce6:	80 94       	com	r8
     ce8:	94 94       	.word	0x9494	; ????
     cea:	94 94       	.word	0x9494	; ????
     cec:	8a 94       	dec	r8
     cee:	94 94       	.word	0x9494	; ????
     cf0:	94 8a       	std	Z+20, r9	; 0x14
     cf2:	8a 94       	dec	r8
     cf4:	8a 76       	andi	r24, 0x6A	; 106
     cf6:	76 6c       	ori	r23, 0xC6	; 198
     cf8:	62 58       	subi	r22, 0x82	; 130
     cfa:	58 58       	subi	r21, 0x88	; 136
     cfc:	4e 4e       	sbci	r20, 0xEE	; 238
     cfe:	58 6c       	ori	r21, 0xC8	; 200
     d00:	76 76       	andi	r23, 0x66	; 102
     d02:	76 76       	andi	r23, 0x66	; 102
     d04:	80 80       	ld	r8, Z
     d06:	80 80       	ld	r8, Z
     d08:	80 76       	andi	r24, 0x60	; 96
     d0a:	76 6c       	ori	r23, 0xC6	; 198
     d0c:	76 80       	ldd	r7, Z+6	; 0x06
     d0e:	76 76       	andi	r23, 0x66	; 102
     d10:	80 94       	com	r8
     d12:	94 94       	.word	0x9494	; ????
     d14:	94 94       	.word	0x9494	; ????
     d16:	8a 94       	dec	r8
     d18:	94 94       	.word	0x9494	; ????
     d1a:	94 8a       	std	Z+20, r9	; 0x14
     d1c:	8a 94       	dec	r8
     d1e:	8a 80       	ldd	r8, Y+2	; 0x02
     d20:	76 6c       	ori	r23, 0xC6	; 198
     d22:	62 58       	subi	r22, 0x82	; 130
     d24:	58 58       	subi	r21, 0x88	; 136
     d26:	4e 4e       	sbci	r20, 0xEE	; 238
     d28:	58 62       	ori	r21, 0x28	; 40
     d2a:	76 76       	andi	r23, 0x66	; 102
     d2c:	76 76       	andi	r23, 0x66	; 102
     d2e:	80 80       	ld	r8, Z
     d30:	80 80       	ld	r8, Z
     d32:	80 76       	andi	r24, 0x60	; 96
     d34:	76 6c       	ori	r23, 0xC6	; 198
     d36:	76 80       	ldd	r7, Z+6	; 0x06
     d38:	76 76       	andi	r23, 0x66	; 102
     d3a:	80 8a       	std	Z+16, r8	; 0x10
     d3c:	94 94       	.word	0x9494	; ????
     d3e:	94 94       	.word	0x9494	; ????
     d40:	8a 94       	dec	r8
     d42:	94 94       	.word	0x9494	; ????
     d44:	94 8a       	std	Z+20, r9	; 0x14
     d46:	8a 94       	dec	r8
     d48:	8a 80       	ldd	r8, Y+2	; 0x02
     d4a:	76 6c       	ori	r23, 0xC6	; 198
     d4c:	62 62       	ori	r22, 0x22	; 34
     d4e:	58 58       	subi	r21, 0x88	; 136
     d50:	58 4e       	sbci	r21, 0xE8	; 232
     d52:	58 62       	ori	r21, 0x28	; 40
     d54:	76 76       	andi	r23, 0x66	; 102
     d56:	76 76       	andi	r23, 0x66	; 102
     d58:	80 80       	ld	r8, Z
     d5a:	80 80       	ld	r8, Z
     d5c:	80 76       	andi	r24, 0x60	; 96
     d5e:	76 76       	andi	r23, 0x66	; 102
     d60:	76 80       	ldd	r7, Z+6	; 0x06
     d62:	76 76       	andi	r23, 0x66	; 102
     d64:	80 8a       	std	Z+16, r8	; 0x10
     d66:	94 94       	.word	0x9494	; ????
     d68:	94 94       	.word	0x9494	; ????
     d6a:	8a 94       	dec	r8
     d6c:	94 94       	.word	0x9494	; ????
     d6e:	94 8a       	std	Z+20, r9	; 0x14
     d70:	8a 94       	dec	r8
     d72:	8a 80       	ldd	r8, Y+2	; 0x02
     d74:	80 6c       	ori	r24, 0xC0	; 192
     d76:	62 62       	ori	r22, 0x22	; 34
     d78:	58 62       	ori	r21, 0x28	; 40
     d7a:	58 4e       	sbci	r21, 0xE8	; 232
     d7c:	4e 62       	ori	r20, 0x2E	; 46
     d7e:	6c 76       	andi	r22, 0x6C	; 108
     d80:	76 76       	andi	r23, 0x66	; 102
     d82:	80 80       	ld	r8, Z
     d84:	80 80       	ld	r8, Z
     d86:	80 76       	andi	r24, 0x60	; 96
     d88:	76 6c       	ori	r23, 0xC6	; 198
     d8a:	76 76       	andi	r23, 0x66	; 102
     d8c:	80 80       	ld	r8, Z
     d8e:	76 8a       	std	Z+22, r7	; 0x16
     d90:	94 94       	.word	0x9494	; ????
     d92:	94 94       	.word	0x9494	; ????
     d94:	94 8a       	std	Z+20, r9	; 0x14
     d96:	94 94       	.word	0x9494	; ????
     d98:	94 8a       	std	Z+20, r9	; 0x14
     d9a:	8a 8a       	std	Y+18, r8	; 0x12
     d9c:	94 8a       	std	Z+20, r9	; 0x14
     d9e:	6c 6c       	ori	r22, 0xCC	; 204
     da0:	6c 58       	subi	r22, 0x8C	; 140
     da2:	58 58       	subi	r21, 0x88	; 136
     da4:	58 4e       	sbci	r21, 0xE8	; 232
     da6:	4e 58       	subi	r20, 0x8E	; 142
     da8:	6c 80       	ldd	r6, Y+4	; 0x04
     daa:	76 80       	ldd	r7, Z+6	; 0x06
     dac:	80 8a       	std	Z+16, r8	; 0x10
     dae:	8a 80       	ldd	r8, Y+2	; 0x02
     db0:	80 80       	ld	r8, Z
     db2:	76 76       	andi	r23, 0x66	; 102
     db4:	76 76       	andi	r23, 0x66	; 102
     db6:	80 80       	ld	r8, Z
     db8:	76 8a       	std	Z+22, r7	; 0x16
     dba:	94 94       	.word	0x9494	; ????
     dbc:	94 94       	.word	0x9494	; ????
     dbe:	94 8a       	std	Z+20, r9	; 0x14
     dc0:	94 94       	.word	0x9494	; ????
     dc2:	94 8a       	std	Z+20, r9	; 0x14
     dc4:	8a 8a       	std	Y+18, r8	; 0x12
     dc6:	94 8a       	std	Z+20, r9	; 0x14
     dc8:	76 6c       	ori	r23, 0xC6	; 198
     dca:	6c 58       	subi	r22, 0x8C	; 140
     dcc:	58 58       	subi	r21, 0x88	; 136
     dce:	58 4e       	sbci	r21, 0xE8	; 232
     dd0:	4e 58       	subi	r20, 0x8E	; 142
     dd2:	6c 76       	andi	r22, 0x6C	; 108
     dd4:	76 76       	andi	r23, 0x66	; 102
     dd6:	76 80       	ldd	r7, Z+6	; 0x06
     dd8:	80 80       	ld	r8, Z
     dda:	80 76       	andi	r24, 0x60	; 96
     ddc:	76 6c       	ori	r23, 0xC6	; 198
     dde:	76 76       	andi	r23, 0x66	; 102
     de0:	80 76       	andi	r24, 0x60	; 96
     de2:	76 80       	ldd	r7, Z+6	; 0x06
     de4:	94 94       	.word	0x9494	; ????
     de6:	94 94       	.word	0x9494	; ????
     de8:	94 8a       	std	Z+20, r9	; 0x14
     dea:	8a 94       	dec	r8
     dec:	94 94       	.word	0x9494	; ????
     dee:	8a 8a       	std	Y+18, r8	; 0x12
     df0:	94 8a       	std	Z+20, r9	; 0x14
     df2:	76 76       	andi	r23, 0x66	; 102
     df4:	6c 62       	ori	r22, 0x2C	; 44
     df6:	58 58       	subi	r21, 0x88	; 136
     df8:	58 4e       	sbci	r21, 0xE8	; 232
     dfa:	4e 58       	subi	r20, 0x8E	; 142
     dfc:	6c 76       	andi	r22, 0x6C	; 108
     dfe:	76 76       	andi	r23, 0x66	; 102
     e00:	76 80       	ldd	r7, Z+6	; 0x06
     e02:	80 80       	ld	r8, Z
     e04:	80 80       	ld	r8, Z
     e06:	76 76       	andi	r23, 0x66	; 102
     e08:	76 76       	andi	r23, 0x66	; 102
     e0a:	80 76       	andi	r24, 0x60	; 96
     e0c:	76 80       	ldd	r7, Z+6	; 0x06
     e0e:	94 94       	.word	0x9494	; ????
     e10:	94 94       	.word	0x9494	; ????
     e12:	94 8a       	std	Z+20, r9	; 0x14
     e14:	94 94       	.word	0x9494	; ????
     e16:	94 94       	.word	0x9494	; ????
     e18:	8a 8a       	std	Y+18, r8	; 0x12
     e1a:	94 8a       	std	Z+20, r9	; 0x14
     e1c:	76 76       	andi	r23, 0x66	; 102
     e1e:	6c 62       	ori	r22, 0x2C	; 44
     e20:	58 58       	subi	r21, 0x88	; 136
     e22:	58 58       	subi	r21, 0x88	; 136
     e24:	4e 58       	subi	r20, 0x8E	; 142
     e26:	6c 76       	andi	r22, 0x6C	; 108
     e28:	76 76       	andi	r23, 0x66	; 102
     e2a:	76 80       	ldd	r7, Z+6	; 0x06
     e2c:	80 80       	ld	r8, Z
     e2e:	80 80       	ld	r8, Z
     e30:	76 76       	andi	r23, 0x66	; 102
     e32:	6c 76       	andi	r22, 0x6C	; 108
     e34:	76 76       	andi	r23, 0x66	; 102
     e36:	76 80       	ldd	r7, Z+6	; 0x06
     e38:	8a 94       	dec	r8
     e3a:	94 94       	.word	0x9494	; ????
     e3c:	94 8a       	std	Z+20, r9	; 0x14
     e3e:	8a 94       	dec	r8
     e40:	94 94       	.word	0x9494	; ????
     e42:	8a 8a       	std	Y+18, r8	; 0x12
     e44:	94 8a       	std	Z+20, r9	; 0x14
     e46:	80 76       	andi	r24, 0x60	; 96
     e48:	6c 62       	ori	r22, 0x2C	; 44
     e4a:	58 58       	subi	r21, 0x88	; 136
     e4c:	58 58       	subi	r21, 0x88	; 136
     e4e:	4e 58       	subi	r20, 0x8E	; 142
     e50:	62 76       	andi	r22, 0x62	; 98
     e52:	76 76       	andi	r23, 0x66	; 102
     e54:	76 80       	ldd	r7, Z+6	; 0x06
     e56:	80 80       	ld	r8, Z
     e58:	80 80       	ld	r8, Z
     e5a:	76 76       	andi	r23, 0x66	; 102
     e5c:	6c 76       	andi	r22, 0x6C	; 108
     e5e:	80 76       	andi	r24, 0x60	; 96
     e60:	76 80       	ldd	r7, Z+6	; 0x06
     e62:	8a 94       	dec	r8
     e64:	94 94       	.word	0x9494	; ????
     e66:	94 8a       	std	Z+20, r9	; 0x14
     e68:	94 94       	.word	0x9494	; ????
     e6a:	94 94       	.word	0x9494	; ????
     e6c:	8a 8a       	std	Y+18, r8	; 0x12
     e6e:	94 8a       	std	Z+20, r9	; 0x14
     e70:	80 76       	andi	r24, 0x60	; 96
     e72:	6c 62       	ori	r22, 0x2C	; 44
     e74:	62 58       	subi	r22, 0x82	; 130
     e76:	58 58       	subi	r21, 0x88	; 136
     e78:	4e 58       	subi	r20, 0x8E	; 142
     e7a:	62 76       	andi	r22, 0x62	; 98
     e7c:	76 76       	andi	r23, 0x66	; 102
     e7e:	76 80       	ldd	r7, Z+6	; 0x06
     e80:	80 80       	ld	r8, Z
     e82:	80 80       	ld	r8, Z
     e84:	76 76       	andi	r23, 0x66	; 102
     e86:	76 76       	andi	r23, 0x66	; 102
     e88:	80 76       	andi	r24, 0x60	; 96
     e8a:	76 80       	ldd	r7, Z+6	; 0x06
     e8c:	8a 94       	dec	r8
     e8e:	94 94       	.word	0x9494	; ????
     e90:	94 8a       	std	Z+20, r9	; 0x14
     e92:	94 94       	.word	0x9494	; ????
     e94:	94 94       	.word	0x9494	; ????
     e96:	8a 8a       	std	Y+18, r8	; 0x12
     e98:	94 8a       	std	Z+20, r9	; 0x14
     e9a:	80 80       	ld	r8, Z
     e9c:	6c 62       	ori	r22, 0x2C	; 44
     e9e:	62 62       	ori	r22, 0x22	; 34
     ea0:	62 58       	subi	r22, 0x82	; 130
     ea2:	4e 58       	subi	r20, 0x8E	; 142
     ea4:	62 6c       	ori	r22, 0xC2	; 194
     ea6:	76 76       	andi	r23, 0x66	; 102
     ea8:	76 80       	ldd	r7, Z+6	; 0x06
     eaa:	80 80       	ld	r8, Z
     eac:	80 80       	ld	r8, Z
     eae:	76 76       	andi	r23, 0x66	; 102
     eb0:	6c 76       	andi	r22, 0x6C	; 108
     eb2:	76 80       	ldd	r7, Z+6	; 0x06
     eb4:	80 76       	andi	r24, 0x60	; 96
     eb6:	8a 94       	dec	r8
     eb8:	94 94       	.word	0x9494	; ????
     eba:	94 94       	.word	0x9494	; ????
     ebc:	8a 8a       	std	Y+18, r8	; 0x12
     ebe:	94 94       	.word	0x9494	; ????
     ec0:	8a 8a       	std	Y+18, r8	; 0x12
     ec2:	8a 94       	dec	r8
     ec4:	8a 76       	andi	r24, 0x6A	; 106
     ec6:	6c 6c       	ori	r22, 0xCC	; 204
     ec8:	58 58       	subi	r21, 0x88	; 136
     eca:	58 58       	subi	r21, 0x88	; 136
     ecc:	4e 4e       	sbci	r20, 0xEE	; 238
     ece:	58 6c       	ori	r21, 0xC8	; 200
     ed0:	80 76       	andi	r24, 0x60	; 96
     ed2:	80 80       	ld	r8, Z
     ed4:	80 8a       	std	Z+16, r8	; 0x10
     ed6:	80 80       	ld	r8, Z
     ed8:	80 76       	andi	r24, 0x60	; 96
     eda:	76 76       	andi	r23, 0x66	; 102
     edc:	76 80       	ldd	r7, Z+6	; 0x06
     ede:	80 76       	andi	r24, 0x60	; 96
     ee0:	80 94       	com	r8
     ee2:	94 94       	.word	0x9494	; ????
     ee4:	94 94       	.word	0x9494	; ????
     ee6:	8a 94       	dec	r8
     ee8:	94 94       	.word	0x9494	; ????
     eea:	8a 8a       	std	Y+18, r8	; 0x12
     eec:	8a 94       	dec	r8
     eee:	8a 76       	andi	r24, 0x6A	; 106
     ef0:	6c 6c       	ori	r22, 0xCC	; 204
     ef2:	58 58       	subi	r21, 0x88	; 136
     ef4:	58 58       	subi	r21, 0x88	; 136
     ef6:	4e 4e       	sbci	r20, 0xEE	; 238
     ef8:	58 6c       	ori	r21, 0xC8	; 200
     efa:	76 76       	andi	r23, 0x66	; 102
     efc:	76 76       	andi	r23, 0x66	; 102
     efe:	80 80       	ld	r8, Z
     f00:	80 80       	ld	r8, Z
     f02:	76 76       	andi	r23, 0x66	; 102
     f04:	6c 76       	andi	r22, 0x6C	; 108
     f06:	76 80       	ldd	r7, Z+6	; 0x06
     f08:	76 76       	andi	r23, 0x66	; 102
     f0a:	80 94       	com	r8
     f0c:	94 8a       	std	Z+20, r9	; 0x14
     f0e:	94 94       	.word	0x9494	; ????
     f10:	8a 8a       	std	Y+18, r8	; 0x12
     f12:	94 94       	.word	0x9494	; ????
     f14:	94 8a       	std	Z+20, r9	; 0x14
     f16:	8a 94       	dec	r8
     f18:	8a 76       	andi	r24, 0x6A	; 106
     f1a:	76 6c       	ori	r23, 0xC6	; 198
     f1c:	62 58       	subi	r22, 0x82	; 130
     f1e:	58 58       	subi	r21, 0x88	; 136
     f20:	58 4e       	sbci	r21, 0xE8	; 232
     f22:	58 6c       	ori	r21, 0xC8	; 200
     f24:	76 76       	andi	r23, 0x66	; 102
     f26:	76 76       	andi	r23, 0x66	; 102
     f28:	80 80       	ld	r8, Z
     f2a:	80 80       	ld	r8, Z
     f2c:	80 76       	andi	r24, 0x60	; 96
     f2e:	76 76       	andi	r23, 0x66	; 102
     f30:	76 80       	ldd	r7, Z+6	; 0x06
     f32:	76 76       	andi	r23, 0x66	; 102
     f34:	80 8a       	std	Z+16, r8	; 0x10
     f36:	94 94       	.word	0x9494	; ????
     f38:	94 94       	.word	0x9494	; ????
     f3a:	8a 8a       	std	Y+18, r8	; 0x12
     f3c:	94 94       	.word	0x9494	; ????
     f3e:	94 8a       	std	Z+20, r9	; 0x14
     f40:	8a 94       	dec	r8
     f42:	8a 76       	andi	r24, 0x6A	; 106
     f44:	76 6c       	ori	r23, 0xC6	; 198
     f46:	62 62       	ori	r22, 0x22	; 34
     f48:	62 58       	subi	r22, 0x82	; 130
     f4a:	58 4e       	sbci	r21, 0xE8	; 232
     f4c:	58 6c       	ori	r21, 0xC8	; 200
     f4e:	76 76       	andi	r23, 0x66	; 102
     f50:	76 76       	andi	r23, 0x66	; 102
     f52:	80 80       	ld	r8, Z
     f54:	80 80       	ld	r8, Z
     f56:	80 76       	andi	r24, 0x60	; 96
     f58:	76 6c       	ori	r23, 0xC6	; 198
     f5a:	76 76       	andi	r23, 0x66	; 102
     f5c:	76 76       	andi	r23, 0x66	; 102
     f5e:	80 8a       	std	Z+16, r8	; 0x10
     f60:	94 94       	.word	0x9494	; ????
     f62:	94 94       	.word	0x9494	; ????
     f64:	8a 8a       	std	Y+18, r8	; 0x12
     f66:	94 8a       	std	Z+20, r9	; 0x14
     f68:	94 8a       	std	Z+20, r9	; 0x14
     f6a:	8a 94       	dec	r8
     f6c:	8a 80       	ldd	r8, Y+2	; 0x02
     f6e:	76 6c       	ori	r23, 0xC6	; 198
     f70:	62 62       	ori	r22, 0x22	; 34
     f72:	58 58       	subi	r21, 0x88	; 136
     f74:	58 4e       	sbci	r21, 0xE8	; 232
     f76:	58 62       	ori	r21, 0x28	; 40
     f78:	76 76       	andi	r23, 0x66	; 102
     f7a:	76 76       	andi	r23, 0x66	; 102
     f7c:	80 80       	ld	r8, Z
     f7e:	80 80       	ld	r8, Z
     f80:	80 76       	andi	r24, 0x60	; 96
     f82:	76 6c       	ori	r23, 0xC6	; 198
     f84:	76 80       	ldd	r7, Z+6	; 0x06
     f86:	76 76       	andi	r23, 0x66	; 102
     f88:	80 8a       	std	Z+16, r8	; 0x10
     f8a:	8a 94       	dec	r8
     f8c:	94 94       	.word	0x9494	; ????
     f8e:	8a 8a       	std	Y+18, r8	; 0x12
     f90:	94 94       	.word	0x9494	; ????
     f92:	94 8a       	std	Z+20, r9	; 0x14
     f94:	8a 94       	dec	r8
     f96:	8a 80       	ldd	r8, Y+2	; 0x02
     f98:	76 6c       	ori	r23, 0xC6	; 198
     f9a:	62 62       	ori	r22, 0x22	; 34
     f9c:	62 62       	ori	r22, 0x22	; 34
     f9e:	58 4e       	sbci	r21, 0xE8	; 232
     fa0:	58 62       	ori	r21, 0x28	; 40
     fa2:	76 76       	andi	r23, 0x66	; 102
     fa4:	76 76       	andi	r23, 0x66	; 102
     fa6:	80 80       	ld	r8, Z
     fa8:	80 80       	ld	r8, Z
     faa:	80 76       	andi	r24, 0x60	; 96
     fac:	76 76       	andi	r23, 0x66	; 102
     fae:	76 80       	ldd	r7, Z+6	; 0x06
     fb0:	76 76       	andi	r23, 0x66	; 102
     fb2:	80 8a       	std	Z+16, r8	; 0x10
     fb4:	8a 94       	dec	r8
     fb6:	94 94       	.word	0x9494	; ????
     fb8:	8a 8a       	std	Y+18, r8	; 0x12
     fba:	8a 94       	dec	r8
     fbc:	94 8a       	std	Z+20, r9	; 0x14
     fbe:	8a 94       	dec	r8
     fc0:	8a 80       	ldd	r8, Y+2	; 0x02
     fc2:	80 76       	andi	r24, 0x60	; 96
     fc4:	62 62       	ori	r22, 0x22	; 34
     fc6:	62 62       	ori	r22, 0x22	; 34
     fc8:	58 4e       	sbci	r21, 0xE8	; 232
     fca:	58 62       	ori	r21, 0x28	; 40
     fcc:	6c 76       	andi	r22, 0x6C	; 108
     fce:	76 76       	andi	r23, 0x66	; 102
     fd0:	80 80       	ld	r8, Z
     fd2:	80 80       	ld	r8, Z
     fd4:	80 76       	andi	r24, 0x60	; 96
     fd6:	76 6c       	ori	r23, 0xC6	; 198
     fd8:	76 76       	andi	r23, 0x66	; 102
     fda:	80 80       	ld	r8, Z
     fdc:	76 80       	ldd	r7, Z+6	; 0x06
     fde:	94 94       	.word	0x9494	; ????
     fe0:	8a 94       	dec	r8
     fe2:	94 8a       	std	Z+20, r9	; 0x14
     fe4:	8a 94       	dec	r8
     fe6:	94 8a       	std	Z+20, r9	; 0x14
     fe8:	8a 8a       	std	Y+18, r8	; 0x12
     fea:	8a 8a       	std	Y+18, r8	; 0x12
     fec:	76 6c       	ori	r23, 0xC6	; 198
     fee:	6c 58       	subi	r22, 0x8C	; 140
     ff0:	58 58       	subi	r21, 0x88	; 136
     ff2:	58 4e       	sbci	r21, 0xE8	; 232
     ff4:	58 58       	subi	r21, 0x88	; 136
     ff6:	6c 80       	ldd	r6, Y+4	; 0x04
     ff8:	76 80       	ldd	r7, Z+6	; 0x06
     ffa:	80 80       	ld	r8, Z
     ffc:	8a 80       	ldd	r8, Y+2	; 0x02
     ffe:	80 80       	ld	r8, Z
    1000:	76 76       	andi	r23, 0x66	; 102
    1002:	76 76       	andi	r23, 0x66	; 102
    1004:	80 80       	ld	r8, Z
    1006:	76 80       	ldd	r7, Z+6	; 0x06
    1008:	94 94       	.word	0x9494	; ????
    100a:	94 94       	.word	0x9494	; ????
    100c:	94 8a       	std	Z+20, r9	; 0x14
    100e:	8a 94       	dec	r8
    1010:	94 8a       	std	Z+20, r9	; 0x14
    1012:	8a 8a       	std	Y+18, r8	; 0x12
    1014:	8a 8a       	std	Y+18, r8	; 0x12
    1016:	76 6c       	ori	r23, 0xC6	; 198
    1018:	6c 62       	ori	r22, 0x2C	; 44
    101a:	58 58       	subi	r21, 0x88	; 136
    101c:	58 4e       	sbci	r21, 0xE8	; 232
    101e:	4e 58       	subi	r20, 0x8E	; 142
    1020:	6c 76       	andi	r22, 0x6C	; 108
    1022:	76 76       	andi	r23, 0x66	; 102
    1024:	76 80       	ldd	r7, Z+6	; 0x06
    1026:	80 80       	ld	r8, Z
    1028:	80 76       	andi	r24, 0x60	; 96
    102a:	76 6c       	ori	r23, 0xC6	; 198
    102c:	76 76       	andi	r23, 0x66	; 102
    102e:	80 76       	andi	r24, 0x60	; 96
    1030:	76 80       	ldd	r7, Z+6	; 0x06
    1032:	94 94       	.word	0x9494	; ????
    1034:	8a 94       	dec	r8
    1036:	94 8a       	std	Z+20, r9	; 0x14
    1038:	8a 94       	dec	r8
    103a:	94 94       	.word	0x9494	; ????
    103c:	8a 8a       	std	Y+18, r8	; 0x12
    103e:	94 8a       	std	Z+20, r9	; 0x14
    1040:	76 76       	andi	r23, 0x66	; 102
    1042:	6c 62       	ori	r22, 0x2C	; 44
    1044:	58 58       	subi	r21, 0x88	; 136
    1046:	58 58       	subi	r21, 0x88	; 136
    1048:	4e 58       	subi	r20, 0x8E	; 142
    104a:	6c 76       	andi	r22, 0x6C	; 108
    104c:	76 76       	andi	r23, 0x66	; 102
    104e:	76 80       	ldd	r7, Z+6	; 0x06
    1050:	80 80       	ld	r8, Z
    1052:	80 80       	ld	r8, Z
    1054:	76 76       	andi	r23, 0x66	; 102
    1056:	76 76       	andi	r23, 0x66	; 102
    1058:	80 76       	andi	r24, 0x60	; 96
    105a:	76 80       	ldd	r7, Z+6	; 0x06
    105c:	8a 94       	dec	r8
    105e:	94 94       	.word	0x9494	; ????
    1060:	94 8a       	std	Z+20, r9	; 0x14
    1062:	8a 94       	dec	r8
    1064:	94 94       	.word	0x9494	; ????
    1066:	8a 8a       	std	Y+18, r8	; 0x12
    1068:	94 8a       	std	Z+20, r9	; 0x14
    106a:	76 76       	andi	r23, 0x66	; 102
    106c:	6c 62       	ori	r22, 0x2C	; 44
    106e:	62 62       	ori	r22, 0x22	; 34
    1070:	58 58       	subi	r21, 0x88	; 136
    1072:	4e 58       	subi	r20, 0x8E	; 142
    1074:	6c 76       	andi	r22, 0x6C	; 108
    1076:	76 76       	andi	r23, 0x66	; 102
    1078:	76 80       	ldd	r7, Z+6	; 0x06
    107a:	80 80       	ld	r8, Z
    107c:	80 80       	ld	r8, Z
    107e:	76 76       	andi	r23, 0x66	; 102
    1080:	6c 76       	andi	r22, 0x6C	; 108
    1082:	76 76       	andi	r23, 0x66	; 102
    1084:	76 80       	ldd	r7, Z+6	; 0x06
    1086:	8a 94       	dec	r8
    1088:	94 94       	.word	0x9494	; ????
    108a:	94 8a       	std	Z+20, r9	; 0x14
    108c:	8a 94       	dec	r8
    108e:	8a 94       	dec	r8
    1090:	8a 80       	ldd	r8, Y+2	; 0x02
    1092:	94 8a       	std	Z+20, r9	; 0x14
    1094:	80 76       	andi	r24, 0x60	; 96
    1096:	6c 62       	ori	r22, 0x2C	; 44
    1098:	62 58       	subi	r22, 0x82	; 130
    109a:	58 58       	subi	r21, 0x88	; 136
    109c:	4e 58       	subi	r20, 0x8E	; 142
    109e:	62 76       	andi	r22, 0x62	; 98
    10a0:	76 76       	andi	r23, 0x66	; 102
    10a2:	76 80       	ldd	r7, Z+6	; 0x06
    10a4:	80 80       	ld	r8, Z
    10a6:	80 80       	ld	r8, Z
    10a8:	76 76       	andi	r23, 0x66	; 102
    10aa:	6c 76       	andi	r22, 0x6C	; 108
    10ac:	80 76       	andi	r24, 0x60	; 96
    10ae:	76 80       	ldd	r7, Z+6	; 0x06
    10b0:	8a 8a       	std	Y+18, r8	; 0x12
    10b2:	94 94       	.word	0x9494	; ????
    10b4:	94 8a       	std	Z+20, r9	; 0x14
    10b6:	8a 94       	dec	r8
    10b8:	94 94       	.word	0x9494	; ????
    10ba:	8a 8a       	std	Y+18, r8	; 0x12
    10bc:	94 8a       	std	Z+20, r9	; 0x14
    10be:	80 76       	andi	r24, 0x60	; 96
    10c0:	6c 62       	ori	r22, 0x2C	; 44
    10c2:	62 62       	ori	r22, 0x22	; 34
    10c4:	62 58       	subi	r22, 0x82	; 130
    10c6:	4e 58       	subi	r20, 0x8E	; 142
    10c8:	62 76       	andi	r22, 0x62	; 98
    10ca:	76 76       	andi	r23, 0x66	; 102
    10cc:	76 80       	ldd	r7, Z+6	; 0x06
    10ce:	80 80       	ld	r8, Z
    10d0:	80 80       	ld	r8, Z
    10d2:	76 76       	andi	r23, 0x66	; 102
    10d4:	76 76       	andi	r23, 0x66	; 102
    10d6:	80 76       	andi	r24, 0x60	; 96
    10d8:	76 80       	ldd	r7, Z+6	; 0x06
    10da:	8a 8a       	std	Y+18, r8	; 0x12
    10dc:	94 94       	.word	0x9494	; ????
    10de:	94 8a       	std	Z+20, r9	; 0x14
    10e0:	8a 8a       	std	Y+18, r8	; 0x12
    10e2:	94 94       	.word	0x9494	; ????
    10e4:	8a 8a       	std	Y+18, r8	; 0x12
    10e6:	94 8a       	std	Z+20, r9	; 0x14
    10e8:	80 80       	ld	r8, Z
    10ea:	76 6c       	ori	r23, 0xC6	; 198
    10ec:	62 62       	ori	r22, 0x22	; 34
    10ee:	62 58       	subi	r22, 0x82	; 130
    10f0:	4e 58       	subi	r20, 0x8E	; 142
    10f2:	62 6c       	ori	r22, 0xC2	; 194
    10f4:	76 76       	andi	r23, 0x66	; 102
    10f6:	76 80       	ldd	r7, Z+6	; 0x06
    10f8:	80 80       	ld	r8, Z
    10fa:	80 80       	ld	r8, Z
    10fc:	76 76       	andi	r23, 0x66	; 102
    10fe:	6c 76       	andi	r22, 0x6C	; 108
    1100:	76 76       	andi	r23, 0x66	; 102
    1102:	80 76       	andi	r24, 0x60	; 96
    1104:	80 94       	com	r8
    1106:	94 8a       	std	Z+20, r9	; 0x14
    1108:	94 94       	.word	0x9494	; ????
    110a:	8a 8a       	std	Y+18, r8	; 0x12
    110c:	94 94       	.word	0x9494	; ????
    110e:	8a 8a       	std	Y+18, r8	; 0x12
    1110:	8a 8a       	std	Y+18, r8	; 0x12
    1112:	8a 76       	andi	r24, 0x6A	; 106
    1114:	6c 6c       	ori	r22, 0xCC	; 204
    1116:	62 58       	subi	r22, 0x82	; 130
    1118:	58 58       	subi	r21, 0x88	; 136
    111a:	58 58       	subi	r21, 0x88	; 136
    111c:	58 6c       	ori	r21, 0xC8	; 200
    111e:	80 76       	andi	r24, 0x60	; 96
    1120:	80 80       	ld	r8, Z
    1122:	80 8a       	std	Z+16, r8	; 0x10
    1124:	80 80       	ld	r8, Z
    1126:	80 76       	andi	r24, 0x60	; 96
    1128:	76 76       	andi	r23, 0x66	; 102
    112a:	76 80       	ldd	r7, Z+6	; 0x06
    112c:	80 76       	andi	r24, 0x60	; 96
    112e:	80 94       	com	r8
    1130:	94 94       	.word	0x9494	; ????
    1132:	94 94       	.word	0x9494	; ????
    1134:	8a 8a       	std	Y+18, r8	; 0x12
    1136:	94 94       	.word	0x9494	; ????
    1138:	8a 8a       	std	Y+18, r8	; 0x12
    113a:	80 8a       	std	Z+16, r8	; 0x10
    113c:	8a 76       	andi	r24, 0x6A	; 106
    113e:	6c 6c       	ori	r22, 0xCC	; 204
    1140:	62 58       	subi	r22, 0x82	; 130
    1142:	58 58       	subi	r21, 0x88	; 136
    1144:	4e 4e       	sbci	r20, 0xEE	; 238
    1146:	58 6c       	ori	r21, 0xC8	; 200
    1148:	76 76       	andi	r23, 0x66	; 102
    114a:	76 76       	andi	r23, 0x66	; 102
    114c:	80 80       	ld	r8, Z
    114e:	80 80       	ld	r8, Z
    1150:	76 76       	andi	r23, 0x66	; 102
    1152:	6c 76       	andi	r22, 0x6C	; 108
    1154:	76 80       	ldd	r7, Z+6	; 0x06
    1156:	76 76       	andi	r23, 0x66	; 102
    1158:	80 8a       	std	Z+16, r8	; 0x10
    115a:	94 8a       	std	Z+20, r9	; 0x14
    115c:	94 94       	.word	0x9494	; ????
    115e:	8a 8a       	std	Y+18, r8	; 0x12
    1160:	94 94       	.word	0x9494	; ????
    1162:	94 8a       	std	Z+20, r9	; 0x14
    1164:	80 94       	com	r8
    1166:	8a 76       	andi	r24, 0x6A	; 106
    1168:	76 6c       	ori	r23, 0xC6	; 198
    116a:	62 58       	subi	r22, 0x82	; 130
    116c:	62 58       	subi	r22, 0x82	; 130
    116e:	58 4e       	sbci	r21, 0xE8	; 232
    1170:	58 6c       	ori	r21, 0xC8	; 200
    1172:	76 76       	andi	r23, 0x66	; 102
    1174:	76 76       	andi	r23, 0x66	; 102
    1176:	80 80       	ld	r8, Z
    1178:	80 80       	ld	r8, Z
    117a:	80 76       	andi	r24, 0x60	; 96
    117c:	76 76       	andi	r23, 0x66	; 102
    117e:	76 80       	ldd	r7, Z+6	; 0x06
    1180:	76 76       	andi	r23, 0x66	; 102
    1182:	80 8a       	std	Z+16, r8	; 0x10
    1184:	94 94       	.word	0x9494	; ????
    1186:	94 94       	.word	0x9494	; ????
    1188:	8a 8a       	std	Y+18, r8	; 0x12
    118a:	94 94       	.word	0x9494	; ????
    118c:	94 8a       	std	Z+20, r9	; 0x14
    118e:	8a 94       	dec	r8
    1190:	8a 80       	ldd	r8, Y+2	; 0x02
    1192:	76 6c       	ori	r23, 0xC6	; 198
    1194:	62 62       	ori	r22, 0x22	; 34
    1196:	62 58       	subi	r22, 0x82	; 130
    1198:	58 4e       	sbci	r21, 0xE8	; 232
    119a:	58 6c       	ori	r21, 0xC8	; 200
    119c:	76 76       	andi	r23, 0x66	; 102
    119e:	76 76       	andi	r23, 0x66	; 102
    11a0:	80 80       	ld	r8, Z
    11a2:	80 80       	ld	r8, Z
    11a4:	80 76       	andi	r24, 0x60	; 96
    11a6:	76 76       	andi	r23, 0x66	; 102
    11a8:	76 76       	andi	r23, 0x66	; 102
    11aa:	76 76       	andi	r23, 0x66	; 102
    11ac:	80 8a       	std	Z+16, r8	; 0x10
    11ae:	94 8a       	std	Z+20, r9	; 0x14
    11b0:	94 94       	.word	0x9494	; ????
    11b2:	8a 8a       	std	Y+18, r8	; 0x12
    11b4:	94 8a       	std	Z+20, r9	; 0x14
    11b6:	94 8a       	std	Z+20, r9	; 0x14
    11b8:	80 94       	com	r8
    11ba:	8a 80       	ldd	r8, Y+2	; 0x02
    11bc:	76 6c       	ori	r23, 0xC6	; 198
    11be:	62 62       	ori	r22, 0x22	; 34
    11c0:	62 58       	subi	r22, 0x82	; 130
    11c2:	58 4e       	sbci	r21, 0xE8	; 232
    11c4:	58 62       	ori	r21, 0x28	; 40
    11c6:	76 76       	andi	r23, 0x66	; 102
    11c8:	76 76       	andi	r23, 0x66	; 102
    11ca:	80 80       	ld	r8, Z
    11cc:	80 80       	ld	r8, Z
    11ce:	80 76       	andi	r24, 0x60	; 96
    11d0:	76 6c       	ori	r23, 0xC6	; 198
    11d2:	76 80       	ldd	r7, Z+6	; 0x06
    11d4:	76 76       	andi	r23, 0x66	; 102
    11d6:	80 8a       	std	Z+16, r8	; 0x10
    11d8:	8a 94       	dec	r8
    11da:	94 94       	.word	0x9494	; ????
    11dc:	8a 8a       	std	Y+18, r8	; 0x12
    11de:	94 94       	.word	0x9494	; ????
    11e0:	94 8a       	std	Z+20, r9	; 0x14
    11e2:	8a 94       	dec	r8
    11e4:	8a 80       	ldd	r8, Y+2	; 0x02
    11e6:	76 76       	andi	r23, 0x66	; 102
    11e8:	62 62       	ori	r22, 0x22	; 34
    11ea:	62 62       	ori	r22, 0x22	; 34
    11ec:	58 4e       	sbci	r21, 0xE8	; 232
    11ee:	58 62       	ori	r21, 0x28	; 40
    11f0:	76 76       	andi	r23, 0x66	; 102
    11f2:	76 76       	andi	r23, 0x66	; 102
    11f4:	80 80       	ld	r8, Z
    11f6:	80 80       	ld	r8, Z
    11f8:	80 76       	andi	r24, 0x60	; 96
    11fa:	76 76       	andi	r23, 0x66	; 102
    11fc:	76 80       	ldd	r7, Z+6	; 0x06
    11fe:	76 76       	andi	r23, 0x66	; 102
    1200:	80 8a       	std	Z+16, r8	; 0x10
    1202:	8a 94       	dec	r8
    1204:	94 94       	.word	0x9494	; ????
    1206:	8a 8a       	std	Y+18, r8	; 0x12
    1208:	8a 94       	dec	r8
    120a:	94 8a       	std	Z+20, r9	; 0x14
    120c:	8a 94       	dec	r8
    120e:	8a 80       	ldd	r8, Y+2	; 0x02
    1210:	80 76       	andi	r24, 0x60	; 96
    1212:	6c 62       	ori	r22, 0x2C	; 44
    1214:	62 62       	ori	r22, 0x22	; 34
    1216:	58 4e       	sbci	r21, 0xE8	; 232
    1218:	58 62       	ori	r21, 0x28	; 40
    121a:	6c 76       	andi	r22, 0x6C	; 108
    121c:	76 76       	andi	r23, 0x66	; 102
    121e:	80 80       	ld	r8, Z
    1220:	80 80       	ld	r8, Z
    1222:	80 76       	andi	r24, 0x60	; 96
    1224:	76 6c       	ori	r23, 0xC6	; 198
    1226:	76 76       	andi	r23, 0x66	; 102
    1228:	76 80       	ldd	r7, Z+6	; 0x06
    122a:	76 80       	ldd	r7, Z+6	; 0x06
    122c:	8a 94       	dec	r8
    122e:	8a 8a       	std	Y+18, r8	; 0x12
    1230:	94 8a       	std	Z+20, r9	; 0x14
    1232:	8a 94       	dec	r8
    1234:	94 8a       	std	Z+20, r9	; 0x14
    1236:	8a 8a       	std	Y+18, r8	; 0x12
    1238:	8a 8a       	std	Y+18, r8	; 0x12
    123a:	76 6c       	ori	r23, 0xC6	; 198
    123c:	6c 62       	ori	r22, 0x2C	; 44
    123e:	58 58       	subi	r21, 0x88	; 136
    1240:	58 58       	subi	r21, 0x88	; 136
    1242:	58 58       	subi	r21, 0x88	; 136
    1244:	6c 80       	ldd	r6, Y+4	; 0x04
    1246:	76 80       	ldd	r7, Z+6	; 0x06
    1248:	80 80       	ld	r8, Z
    124a:	8a 80       	ldd	r8, Y+2	; 0x02
    124c:	80 80       	ld	r8, Z
    124e:	76 76       	andi	r23, 0x66	; 102
    1250:	76 76       	andi	r23, 0x66	; 102
    1252:	80 80       	ld	r8, Z
    1254:	76 80       	ldd	r7, Z+6	; 0x06
    1256:	8a 94       	dec	r8
    1258:	94 94       	.word	0x9494	; ????
    125a:	94 8a       	std	Z+20, r9	; 0x14
    125c:	8a 94       	dec	r8
    125e:	94 8a       	std	Z+20, r9	; 0x14
    1260:	8a 80       	ldd	r8, Y+2	; 0x02
    1262:	8a 8a       	std	Y+18, r8	; 0x12
    1264:	76 6c       	ori	r23, 0xC6	; 198
    1266:	6c 62       	ori	r22, 0x2C	; 44
    1268:	58 58       	subi	r21, 0x88	; 136
    126a:	58 58       	subi	r21, 0x88	; 136
    126c:	4e 58       	subi	r20, 0x8E	; 142
    126e:	6c 76       	andi	r22, 0x6C	; 108
    1270:	76 76       	andi	r23, 0x66	; 102
    1272:	76 80       	ldd	r7, Z+6	; 0x06
    1274:	80 80       	ld	r8, Z
    1276:	80 80       	ld	r8, Z
    1278:	76 6c       	ori	r23, 0xC6	; 198
    127a:	76 76       	andi	r23, 0x66	; 102
    127c:	80 76       	andi	r24, 0x60	; 96
    127e:	76 80       	ldd	r7, Z+6	; 0x06
    1280:	8a 94       	dec	r8
    1282:	8a 94       	dec	r8
    1284:	94 8a       	std	Z+20, r9	; 0x14
    1286:	8a 94       	dec	r8
    1288:	94 8a       	std	Z+20, r9	; 0x14
    128a:	8a 80       	ldd	r8, Y+2	; 0x02
    128c:	8a 8a       	std	Y+18, r8	; 0x12
    128e:	76 76       	andi	r23, 0x66	; 102
    1290:	6c 62       	ori	r22, 0x2C	; 44
    1292:	58 62       	ori	r21, 0x28	; 40
    1294:	58 58       	subi	r21, 0x88	; 136
    1296:	4e 58       	subi	r20, 0x8E	; 142
    1298:	6c 76       	andi	r22, 0x6C	; 108
    129a:	76 76       	andi	r23, 0x66	; 102
    129c:	76 80       	ldd	r7, Z+6	; 0x06
    129e:	80 80       	ld	r8, Z
    12a0:	80 80       	ld	r8, Z
    12a2:	76 76       	andi	r23, 0x66	; 102
    12a4:	76 76       	andi	r23, 0x66	; 102
    12a6:	80 76       	andi	r24, 0x60	; 96
    12a8:	76 80       	ldd	r7, Z+6	; 0x06
    12aa:	8a 94       	dec	r8
    12ac:	8a 94       	dec	r8
    12ae:	94 8a       	std	Z+20, r9	; 0x14
    12b0:	8a 94       	dec	r8
    12b2:	94 94       	.word	0x9494	; ????
    12b4:	8a 80       	ldd	r8, Y+2	; 0x02
    12b6:	94 8a       	std	Z+20, r9	; 0x14
    12b8:	80 76       	andi	r24, 0x60	; 96
    12ba:	6c 62       	ori	r22, 0x2C	; 44
    12bc:	62 62       	ori	r22, 0x22	; 34
    12be:	58 58       	subi	r21, 0x88	; 136
    12c0:	4e 58       	subi	r20, 0x8E	; 142
    12c2:	6c 76       	andi	r22, 0x6C	; 108
    12c4:	76 76       	andi	r23, 0x66	; 102
    12c6:	76 80       	ldd	r7, Z+6	; 0x06
    12c8:	80 80       	ld	r8, Z
    12ca:	80 80       	ld	r8, Z
    12cc:	76 76       	andi	r23, 0x66	; 102
    12ce:	76 76       	andi	r23, 0x66	; 102
    12d0:	76 76       	andi	r23, 0x66	; 102
    12d2:	76 80       	ldd	r7, Z+6	; 0x06
    12d4:	8a 94       	dec	r8
    12d6:	8a 94       	dec	r8
    12d8:	94 8a       	std	Z+20, r9	; 0x14
    12da:	8a 8a       	std	Y+18, r8	; 0x12
    12dc:	8a 94       	dec	r8
    12de:	8a 80       	ldd	r8, Y+2	; 0x02
    12e0:	94 8a       	std	Z+20, r9	; 0x14
    12e2:	80 76       	andi	r24, 0x60	; 96
    12e4:	6c 62       	ori	r22, 0x2C	; 44
    12e6:	62 62       	ori	r22, 0x22	; 34
    12e8:	58 58       	subi	r21, 0x88	; 136
    12ea:	4e 58       	subi	r20, 0x8E	; 142
    12ec:	62 76       	andi	r22, 0x62	; 98
    12ee:	76 76       	andi	r23, 0x66	; 102
    12f0:	76 80       	ldd	r7, Z+6	; 0x06
    12f2:	80 80       	ld	r8, Z
    12f4:	80 80       	ld	r8, Z
    12f6:	76 76       	andi	r23, 0x66	; 102
    12f8:	76 76       	andi	r23, 0x66	; 102
    12fa:	76 76       	andi	r23, 0x66	; 102
    12fc:	76 80       	ldd	r7, Z+6	; 0x06
    12fe:	8a 8a       	std	Y+18, r8	; 0x12
    1300:	8a 94       	dec	r8
    1302:	94 8a       	std	Z+20, r9	; 0x14
    1304:	8a 8a       	std	Y+18, r8	; 0x12
    1306:	8a 94       	dec	r8
    1308:	8a 80       	ldd	r8, Y+2	; 0x02
    130a:	94 8a       	std	Z+20, r9	; 0x14
    130c:	80 76       	andi	r24, 0x60	; 96
    130e:	76 6c       	ori	r23, 0xC6	; 198
    1310:	62 62       	ori	r22, 0x22	; 34
    1312:	62 58       	subi	r22, 0x82	; 130
    1314:	4e 58       	subi	r20, 0x8E	; 142
    1316:	62 76       	andi	r22, 0x62	; 98
    1318:	76 76       	andi	r23, 0x66	; 102
    131a:	76 80       	ldd	r7, Z+6	; 0x06
    131c:	80 80       	ld	r8, Z
    131e:	80 80       	ld	r8, Z
    1320:	76 76       	andi	r23, 0x66	; 102
    1322:	76 76       	andi	r23, 0x66	; 102
    1324:	80 76       	andi	r24, 0x60	; 96
    1326:	76 80       	ldd	r7, Z+6	; 0x06
    1328:	8a 8a       	std	Y+18, r8	; 0x12
    132a:	8a 94       	dec	r8
    132c:	94 8a       	std	Z+20, r9	; 0x14
    132e:	8a 8a       	std	Y+18, r8	; 0x12
    1330:	8a 94       	dec	r8
    1332:	8a 8a       	std	Y+18, r8	; 0x12
    1334:	94 8a       	std	Z+20, r9	; 0x14
    1336:	80 80       	ld	r8, Z
    1338:	76 6c       	ori	r23, 0xC6	; 198
    133a:	62 62       	ori	r22, 0x22	; 34
    133c:	62 58       	subi	r22, 0x82	; 130
    133e:	4e 58       	subi	r20, 0x8E	; 142
    1340:	62 6c       	ori	r22, 0xC2	; 194
    1342:	76 76       	andi	r23, 0x66	; 102
    1344:	76 80       	ldd	r7, Z+6	; 0x06
    1346:	80 80       	ld	r8, Z
    1348:	80 80       	ld	r8, Z
    134a:	76 76       	andi	r23, 0x66	; 102
    134c:	6c 76       	andi	r22, 0x6C	; 108
    134e:	76 76       	andi	r23, 0x66	; 102
    1350:	80 76       	andi	r24, 0x60	; 96
    1352:	80 8a       	std	Z+16, r8	; 0x10
    1354:	94 8a       	std	Z+20, r9	; 0x14
    1356:	8a 94       	dec	r8
    1358:	8a 8a       	std	Y+18, r8	; 0x12
    135a:	94 8a       	std	Z+20, r9	; 0x14
    135c:	8a 8a       	std	Y+18, r8	; 0x12
    135e:	8a 8a       	std	Y+18, r8	; 0x12
    1360:	8a 76       	andi	r24, 0x6A	; 106
    1362:	6c 6c       	ori	r22, 0xCC	; 204
    1364:	62 58       	subi	r22, 0x82	; 130
    1366:	62 58       	subi	r22, 0x82	; 130
    1368:	58 58       	subi	r21, 0x88	; 136
    136a:	58 6c       	ori	r21, 0xC8	; 200
    136c:	80 76       	andi	r24, 0x60	; 96
    136e:	80 80       	ld	r8, Z
    1370:	80 80       	ld	r8, Z
    1372:	80 80       	ld	r8, Z
    1374:	80 76       	andi	r24, 0x60	; 96
    1376:	76 76       	andi	r23, 0x66	; 102
    1378:	76 80       	ldd	r7, Z+6	; 0x06
    137a:	80 76       	andi	r24, 0x60	; 96
    137c:	80 8a       	std	Z+16, r8	; 0x10
    137e:	94 8a       	std	Z+20, r9	; 0x14
    1380:	8a 94       	dec	r8
    1382:	8a 8a       	std	Y+18, r8	; 0x12
    1384:	8a 94       	dec	r8
    1386:	8a 8a       	std	Y+18, r8	; 0x12
    1388:	80 8a       	std	Z+16, r8	; 0x10
    138a:	8a 76       	andi	r24, 0x6A	; 106
    138c:	6c 6c       	ori	r22, 0xCC	; 204
    138e:	62 58       	subi	r22, 0x82	; 130
    1390:	58 58       	subi	r21, 0x88	; 136
    1392:	58 58       	subi	r21, 0x88	; 136
    1394:	58 6c       	ori	r21, 0xC8	; 200
    1396:	76 76       	andi	r23, 0x66	; 102
    1398:	76 76       	andi	r23, 0x66	; 102
    139a:	80 80       	ld	r8, Z
    139c:	80 80       	ld	r8, Z
    139e:	80 76       	andi	r24, 0x60	; 96
    13a0:	76 76       	andi	r23, 0x66	; 102
    13a2:	76 80       	ldd	r7, Z+6	; 0x06
    13a4:	76 76       	andi	r23, 0x66	; 102
    13a6:	80 8a       	std	Z+16, r8	; 0x10
    13a8:	94 8a       	std	Z+20, r9	; 0x14
    13aa:	8a 94       	dec	r8
    13ac:	8a 8a       	std	Y+18, r8	; 0x12
    13ae:	8a 8a       	std	Y+18, r8	; 0x12
    13b0:	8a 8a       	std	Y+18, r8	; 0x12
    13b2:	80 8a       	std	Z+16, r8	; 0x10
    13b4:	8a 76       	andi	r24, 0x6A	; 106
    13b6:	76 6c       	ori	r23, 0xC6	; 198
    13b8:	62 62       	ori	r22, 0x22	; 34
    13ba:	62 58       	subi	r22, 0x82	; 130
    13bc:	58 58       	subi	r21, 0x88	; 136
    13be:	58 6c       	ori	r21, 0xC8	; 200
    13c0:	76 76       	andi	r23, 0x66	; 102
    13c2:	76 76       	andi	r23, 0x66	; 102
    13c4:	80 80       	ld	r8, Z
    13c6:	80 80       	ld	r8, Z
    13c8:	80 76       	andi	r24, 0x60	; 96
    13ca:	76 76       	andi	r23, 0x66	; 102
    13cc:	76 80       	ldd	r7, Z+6	; 0x06
    13ce:	76 76       	andi	r23, 0x66	; 102
    13d0:	80 8a       	std	Z+16, r8	; 0x10
    13d2:	94 8a       	std	Z+20, r9	; 0x14
    13d4:	94 94       	.word	0x9494	; ????
    13d6:	8a 8a       	std	Y+18, r8	; 0x12
    13d8:	94 8a       	std	Z+20, r9	; 0x14
    13da:	8a 8a       	std	Y+18, r8	; 0x12
    13dc:	80 94       	com	r8
    13de:	8a 80       	ldd	r8, Y+2	; 0x02
    13e0:	76 76       	andi	r23, 0x66	; 102
    13e2:	62 62       	ori	r22, 0x22	; 34
    13e4:	62 62       	ori	r22, 0x22	; 34
    13e6:	58 58       	subi	r21, 0x88	; 136
    13e8:	58 6c       	ori	r21, 0xC8	; 200
    13ea:	76 76       	andi	r23, 0x66	; 102
    13ec:	76 76       	andi	r23, 0x66	; 102
    13ee:	80 80       	ld	r8, Z
    13f0:	80 80       	ld	r8, Z
    13f2:	80 76       	andi	r24, 0x60	; 96
    13f4:	76 76       	andi	r23, 0x66	; 102
    13f6:	76 76       	andi	r23, 0x66	; 102
    13f8:	76 76       	andi	r23, 0x66	; 102
    13fa:	80 8a       	std	Z+16, r8	; 0x10
    13fc:	8a 8a       	std	Y+18, r8	; 0x12
    13fe:	94 8a       	std	Z+20, r9	; 0x14
    1400:	8a 8a       	std	Y+18, r8	; 0x12
    1402:	8a 8a       	std	Y+18, r8	; 0x12
    1404:	8a 8a       	std	Y+18, r8	; 0x12
    1406:	80 8a       	std	Z+16, r8	; 0x10
    1408:	8a 80       	ldd	r8, Y+2	; 0x02
    140a:	76 76       	andi	r23, 0x66	; 102
    140c:	62 62       	ori	r22, 0x22	; 34
    140e:	62 62       	ori	r22, 0x22	; 34
    1410:	58 4e       	sbci	r21, 0xE8	; 232
    1412:	58 62       	ori	r21, 0x28	; 40
    1414:	6c 76       	andi	r22, 0x6C	; 108
    1416:	76 76       	andi	r23, 0x66	; 102
    1418:	80 80       	ld	r8, Z
    141a:	80 80       	ld	r8, Z
    141c:	80 76       	andi	r24, 0x60	; 96
    141e:	76 76       	andi	r23, 0x66	; 102
    1420:	76 76       	andi	r23, 0x66	; 102
    1422:	76 76       	andi	r23, 0x66	; 102
    1424:	76 8a       	std	Z+22, r7	; 0x16
    1426:	8a 8a       	std	Y+18, r8	; 0x12
    1428:	94 94       	.word	0x9494	; ????
    142a:	8a 8a       	std	Y+18, r8	; 0x12
    142c:	8a 8a       	std	Y+18, r8	; 0x12
    142e:	94 8a       	std	Z+20, r9	; 0x14
    1430:	80 94       	com	r8
    1432:	8a 80       	ldd	r8, Y+2	; 0x02
    1434:	76 76       	andi	r23, 0x66	; 102
    1436:	6c 62       	ori	r22, 0x2C	; 44
    1438:	62 62       	ori	r22, 0x22	; 34
    143a:	62 58       	subi	r22, 0x82	; 130
    143c:	58 62       	ori	r21, 0x28	; 40
    143e:	76 76       	andi	r23, 0x66	; 102
    1440:	76 76       	andi	r23, 0x66	; 102
    1442:	80 80       	ld	r8, Z
    1444:	80 80       	ld	r8, Z
    1446:	80 76       	andi	r24, 0x60	; 96
    1448:	76 76       	andi	r23, 0x66	; 102
    144a:	76 80       	ldd	r7, Z+6	; 0x06
    144c:	76 76       	andi	r23, 0x66	; 102
    144e:	80 8a       	std	Z+16, r8	; 0x10
    1450:	8a 8a       	std	Y+18, r8	; 0x12
    1452:	94 94       	.word	0x9494	; ????
    1454:	8a 8a       	std	Y+18, r8	; 0x12
    1456:	8a 8a       	std	Y+18, r8	; 0x12
    1458:	94 8a       	std	Z+20, r9	; 0x14
    145a:	8a 8a       	std	Y+18, r8	; 0x12
    145c:	8a 80       	ldd	r8, Y+2	; 0x02
    145e:	80 76       	andi	r24, 0x60	; 96
    1460:	6c 62       	ori	r22, 0x2C	; 44
    1462:	62 62       	ori	r22, 0x22	; 34
    1464:	62 58       	subi	r22, 0x82	; 130
    1466:	58 62       	ori	r21, 0x28	; 40
    1468:	6c 76       	andi	r22, 0x6C	; 108
    146a:	76 76       	andi	r23, 0x66	; 102
    146c:	80 80       	ld	r8, Z
    146e:	80 80       	ld	r8, Z
    1470:	80 76       	andi	r24, 0x60	; 96
    1472:	76 76       	andi	r23, 0x66	; 102
    1474:	76 76       	andi	r23, 0x66	; 102
    1476:	76 80       	ldd	r7, Z+6	; 0x06
    1478:	76 80       	ldd	r7, Z+6	; 0x06
    147a:	8a 94       	dec	r8
    147c:	8a 8a       	std	Y+18, r8	; 0x12
    147e:	94 8a       	std	Z+20, r9	; 0x14
    1480:	8a 94       	dec	r8
    1482:	8a 8a       	std	Y+18, r8	; 0x12
    1484:	8a 80       	ldd	r8, Y+2	; 0x02
    1486:	8a 8a       	std	Y+18, r8	; 0x12
    1488:	76 6c       	ori	r23, 0xC6	; 198
    148a:	6c 62       	ori	r22, 0x2C	; 44
    148c:	58 62       	ori	r21, 0x28	; 40
    148e:	62 58       	subi	r22, 0x82	; 130
    1490:	58 58       	subi	r21, 0x88	; 136
    1492:	6c 80       	ldd	r6, Y+4	; 0x04
    1494:	76 76       	andi	r23, 0x66	; 102
    1496:	80 80       	ld	r8, Z
    1498:	80 80       	ld	r8, Z
    149a:	80 80       	ld	r8, Z
    149c:	76 76       	andi	r23, 0x66	; 102
    149e:	76 76       	andi	r23, 0x66	; 102
    14a0:	80 80       	ld	r8, Z
    14a2:	76 80       	ldd	r7, Z+6	; 0x06
    14a4:	8a 94       	dec	r8
    14a6:	8a 8a       	std	Y+18, r8	; 0x12
    14a8:	94 8a       	std	Z+20, r9	; 0x14
    14aa:	8a 8a       	std	Y+18, r8	; 0x12
    14ac:	8a 8a       	std	Y+18, r8	; 0x12
    14ae:	8a 80       	ldd	r8, Y+2	; 0x02
    14b0:	8a 8a       	std	Y+18, r8	; 0x12
    14b2:	76 6c       	ori	r23, 0xC6	; 198
    14b4:	6c 62       	ori	r22, 0x2C	; 44
    14b6:	58 62       	ori	r21, 0x28	; 40
    14b8:	58 58       	subi	r21, 0x88	; 136
    14ba:	58 58       	subi	r21, 0x88	; 136
    14bc:	6c 76       	andi	r22, 0x6C	; 108
    14be:	76 76       	andi	r23, 0x66	; 102
    14c0:	76 80       	ldd	r7, Z+6	; 0x06
    14c2:	80 80       	ld	r8, Z
    14c4:	80 80       	ld	r8, Z
    14c6:	76 76       	andi	r23, 0x66	; 102
    14c8:	76 76       	andi	r23, 0x66	; 102
    14ca:	76 76       	andi	r23, 0x66	; 102
    14cc:	76 80       	ldd	r7, Z+6	; 0x06
    14ce:	8a 94       	dec	r8
    14d0:	8a 8a       	std	Y+18, r8	; 0x12
    14d2:	94 8a       	std	Z+20, r9	; 0x14
    14d4:	8a 8a       	std	Y+18, r8	; 0x12
    14d6:	8a 8a       	std	Y+18, r8	; 0x12
    14d8:	8a 80       	ldd	r8, Y+2	; 0x02
    14da:	8a 8a       	std	Y+18, r8	; 0x12
    14dc:	76 76       	andi	r23, 0x66	; 102
    14de:	6c 62       	ori	r22, 0x2C	; 44
    14e0:	62 62       	ori	r22, 0x22	; 34
    14e2:	62 58       	subi	r22, 0x82	; 130
    14e4:	58 58       	subi	r21, 0x88	; 136
    14e6:	6c 76       	andi	r22, 0x6C	; 108
    14e8:	76 76       	andi	r23, 0x66	; 102
    14ea:	76 80       	ldd	r7, Z+6	; 0x06
    14ec:	80 80       	ld	r8, Z
    14ee:	80 80       	ld	r8, Z
    14f0:	76 76       	andi	r23, 0x66	; 102
    14f2:	76 76       	andi	r23, 0x66	; 102
    14f4:	80 76       	andi	r24, 0x60	; 96
    14f6:	76 80       	ldd	r7, Z+6	; 0x06
    14f8:	8a 94       	dec	r8
    14fa:	8a 94       	dec	r8
    14fc:	94 8a       	std	Z+20, r9	; 0x14
    14fe:	8a 94       	dec	r8
    1500:	8a 8a       	std	Y+18, r8	; 0x12
    1502:	8a 80       	ldd	r8, Y+2	; 0x02
    1504:	8a 8a       	std	Y+18, r8	; 0x12
    1506:	80 76       	andi	r24, 0x60	; 96
    1508:	76 6c       	ori	r23, 0xC6	; 198
    150a:	62 62       	ori	r22, 0x22	; 34
    150c:	62 58       	subi	r22, 0x82	; 130
    150e:	58 58       	subi	r21, 0x88	; 136
    1510:	6c 76       	andi	r22, 0x6C	; 108
    1512:	76 76       	andi	r23, 0x66	; 102
    1514:	76 80       	ldd	r7, Z+6	; 0x06
    1516:	80 80       	ld	r8, Z
    1518:	80 80       	ld	r8, Z
    151a:	76 76       	andi	r23, 0x66	; 102
    151c:	76 76       	andi	r23, 0x66	; 102
    151e:	76 76       	andi	r23, 0x66	; 102
    1520:	76 80       	ldd	r7, Z+6	; 0x06
    1522:	8a 8a       	std	Y+18, r8	; 0x12
    1524:	8a 8a       	std	Y+18, r8	; 0x12
    1526:	8a 8a       	std	Y+18, r8	; 0x12
    1528:	8a 8a       	std	Y+18, r8	; 0x12
    152a:	8a 8a       	std	Y+18, r8	; 0x12
    152c:	8a 80       	ldd	r8, Y+2	; 0x02
    152e:	8a 8a       	std	Y+18, r8	; 0x12
    1530:	80 76       	andi	r24, 0x60	; 96
    1532:	76 6c       	ori	r23, 0xC6	; 198
    1534:	62 62       	ori	r22, 0x22	; 34
    1536:	62 58       	subi	r22, 0x82	; 130
    1538:	58 58       	subi	r21, 0x88	; 136
    153a:	62 6c       	ori	r22, 0xC2	; 194
    153c:	76 76       	andi	r23, 0x66	; 102
    153e:	76 80       	ldd	r7, Z+6	; 0x06
    1540:	80 80       	ld	r8, Z
    1542:	80 80       	ld	r8, Z
    1544:	76 76       	andi	r23, 0x66	; 102
    1546:	76 76       	andi	r23, 0x66	; 102
    1548:	76 76       	andi	r23, 0x66	; 102
    154a:	76 76       	andi	r23, 0x66	; 102
    154c:	8a 8a       	std	Y+18, r8	; 0x12
    154e:	8a 94       	dec	r8
    1550:	94 8a       	std	Z+20, r9	; 0x14
    1552:	8a 8a       	std	Y+18, r8	; 0x12
    1554:	8a 94       	dec	r8
    1556:	8a 80       	ldd	r8, Y+2	; 0x02
    1558:	94 8a       	std	Z+20, r9	; 0x14
    155a:	80 76       	andi	r24, 0x60	; 96
    155c:	76 6c       	ori	r23, 0xC6	; 198
    155e:	62 62       	ori	r22, 0x22	; 34
    1560:	62 62       	ori	r22, 0x22	; 34
    1562:	58 58       	subi	r21, 0x88	; 136
    1564:	62 6c       	ori	r22, 0xC2	; 194
    1566:	76 76       	andi	r23, 0x66	; 102
    1568:	76 80       	ldd	r7, Z+6	; 0x06
    156a:	80 80       	ld	r8, Z
    156c:	80 80       	ld	r8, Z
    156e:	76 76       	andi	r23, 0x66	; 102
    1570:	76 76       	andi	r23, 0x66	; 102
    1572:	80 76       	andi	r24, 0x60	; 96
    1574:	76 76       	andi	r23, 0x66	; 102
    1576:	8a 8a       	std	Y+18, r8	; 0x12
    1578:	8a 94       	dec	r8
    157a:	94 8a       	std	Z+20, r9	; 0x14
    157c:	8a 8a       	std	Y+18, r8	; 0x12
    157e:	8a 94       	dec	r8
    1580:	8a 8a       	std	Y+18, r8	; 0x12
    1582:	8a 8a       	std	Y+18, r8	; 0x12
    1584:	80 80       	ld	r8, Z
    1586:	76 6c       	ori	r23, 0xC6	; 198
    1588:	62 62       	ori	r22, 0x22	; 34
    158a:	62 62       	ori	r22, 0x22	; 34
    158c:	58 58       	subi	r21, 0x88	; 136
    158e:	62 6c       	ori	r22, 0xC2	; 194
    1590:	76 76       	andi	r23, 0x66	; 102
    1592:	76 80       	ldd	r7, Z+6	; 0x06
    1594:	80 80       	ld	r8, Z
    1596:	80 80       	ld	r8, Z
    1598:	76 76       	andi	r23, 0x66	; 102
    159a:	76 76       	andi	r23, 0x66	; 102
    159c:	76 76       	andi	r23, 0x66	; 102
    159e:	80 76       	andi	r24, 0x60	; 96
    15a0:	80 8a       	std	Z+16, r8	; 0x10
    15a2:	94 8a       	std	Z+20, r9	; 0x14
    15a4:	8a 94       	dec	r8
    15a6:	8a 8a       	std	Y+18, r8	; 0x12
    15a8:	8a 8a       	std	Y+18, r8	; 0x12
    15aa:	8a 8a       	std	Y+18, r8	; 0x12
    15ac:	80 8a       	std	Z+16, r8	; 0x10
    15ae:	8a 76       	andi	r24, 0x6A	; 106
    15b0:	6c 6c       	ori	r22, 0xCC	; 204
    15b2:	62 62       	ori	r22, 0x22	; 34
    15b4:	62 62       	ori	r22, 0x22	; 34
    15b6:	58 58       	subi	r21, 0x88	; 136
    15b8:	58 6c       	ori	r21, 0xC8	; 200
    15ba:	80 76       	andi	r24, 0x60	; 96
    15bc:	76 80       	ldd	r7, Z+6	; 0x06
    15be:	80 80       	ld	r8, Z
    15c0:	80 80       	ld	r8, Z
    15c2:	80 76       	andi	r24, 0x60	; 96
    15c4:	76 76       	andi	r23, 0x66	; 102
    15c6:	76 80       	ldd	r7, Z+6	; 0x06
    15c8:	80 76       	andi	r24, 0x60	; 96
    15ca:	80 8a       	std	Z+16, r8	; 0x10
    15cc:	94 8a       	std	Z+20, r9	; 0x14
    15ce:	8a 94       	dec	r8
    15d0:	8a 8a       	std	Y+18, r8	; 0x12
    15d2:	8a 8a       	std	Y+18, r8	; 0x12
    15d4:	8a 8a       	std	Y+18, r8	; 0x12
    15d6:	80 8a       	std	Z+16, r8	; 0x10
    15d8:	8a 76       	andi	r24, 0x6A	; 106
    15da:	6c 6c       	ori	r22, 0xCC	; 204
    15dc:	62 58       	subi	r22, 0x82	; 130
    15de:	62 62       	ori	r22, 0x22	; 34
    15e0:	58 58       	subi	r21, 0x88	; 136
    15e2:	58 6c       	ori	r21, 0xC8	; 200
    15e4:	76 76       	andi	r23, 0x66	; 102
    15e6:	76 76       	andi	r23, 0x66	; 102
    15e8:	80 80       	ld	r8, Z
    15ea:	80 80       	ld	r8, Z
    15ec:	80 76       	andi	r24, 0x60	; 96
    15ee:	76 76       	andi	r23, 0x66	; 102
    15f0:	76 76       	andi	r23, 0x66	; 102
    15f2:	80 76       	andi	r24, 0x60	; 96
    15f4:	80 8a       	std	Z+16, r8	; 0x10
    15f6:	94 8a       	std	Z+20, r9	; 0x14
    15f8:	8a 94       	dec	r8
    15fa:	8a 8a       	std	Y+18, r8	; 0x12
    15fc:	8a 8a       	std	Y+18, r8	; 0x12
    15fe:	8a 8a       	std	Y+18, r8	; 0x12
    1600:	80 8a       	std	Z+16, r8	; 0x10
    1602:	8a 76       	andi	r24, 0x6A	; 106
    1604:	76 6c       	ori	r23, 0xC6	; 198
    1606:	62 62       	ori	r22, 0x22	; 34
    1608:	62 62       	ori	r22, 0x22	; 34
    160a:	58 58       	subi	r21, 0x88	; 136
    160c:	58 62       	ori	r21, 0x28	; 40
    160e:	76 76       	andi	r23, 0x66	; 102
    1610:	76 76       	andi	r23, 0x66	; 102
    1612:	80 80       	ld	r8, Z
    1614:	80 80       	ld	r8, Z
    1616:	80 76       	andi	r24, 0x60	; 96
    1618:	76 76       	andi	r23, 0x66	; 102
    161a:	76 80       	ldd	r7, Z+6	; 0x06
    161c:	76 76       	andi	r23, 0x66	; 102
    161e:	80 8a       	std	Z+16, r8	; 0x10
    1620:	94 8a       	std	Z+20, r9	; 0x14
    1622:	94 94       	.word	0x9494	; ????
    1624:	8a 8a       	std	Y+18, r8	; 0x12
    1626:	8a 8a       	std	Y+18, r8	; 0x12
    1628:	8a 8a       	std	Y+18, r8	; 0x12
    162a:	80 8a       	std	Z+16, r8	; 0x10
    162c:	8a 80       	ldd	r8, Y+2	; 0x02
    162e:	76 76       	andi	r23, 0x66	; 102
    1630:	6c 62       	ori	r22, 0x2C	; 44
    1632:	62 62       	ori	r22, 0x22	; 34
    1634:	58 58       	subi	r21, 0x88	; 136
    1636:	58 62       	ori	r21, 0x28	; 40
    1638:	76 76       	andi	r23, 0x66	; 102
    163a:	76 76       	andi	r23, 0x66	; 102
    163c:	80 80       	ld	r8, Z
    163e:	80 80       	ld	r8, Z
    1640:	80 76       	andi	r24, 0x60	; 96
    1642:	76 76       	andi	r23, 0x66	; 102
    1644:	76 76       	andi	r23, 0x66	; 102
    1646:	76 76       	andi	r23, 0x66	; 102
    1648:	76 8a       	std	Z+22, r7	; 0x16
    164a:	8a 8a       	std	Y+18, r8	; 0x12
    164c:	8a 8a       	std	Y+18, r8	; 0x12
    164e:	8a 8a       	std	Y+18, r8	; 0x12
    1650:	8a 8a       	std	Y+18, r8	; 0x12
    1652:	8a 8a       	std	Y+18, r8	; 0x12
    1654:	80 8a       	std	Z+16, r8	; 0x10
    1656:	8a 80       	ldd	r8, Y+2	; 0x02
    1658:	76 76       	andi	r23, 0x66	; 102
    165a:	6c 62       	ori	r22, 0x2C	; 44
    165c:	62 62       	ori	r22, 0x22	; 34
    165e:	58 58       	subi	r21, 0x88	; 136
    1660:	58 62       	ori	r21, 0x28	; 40
    1662:	6c 76       	andi	r22, 0x6C	; 108
    1664:	76 76       	andi	r23, 0x66	; 102
    1666:	80 80       	ld	r8, Z
    1668:	80 80       	ld	r8, Z
    166a:	80 76       	andi	r24, 0x60	; 96
    166c:	76 76       	andi	r23, 0x66	; 102
    166e:	76 76       	andi	r23, 0x66	; 102
    1670:	76 76       	andi	r23, 0x66	; 102
    1672:	76 8a       	std	Z+22, r7	; 0x16
    1674:	8a 8a       	std	Y+18, r8	; 0x12
    1676:	8a 94       	dec	r8
    1678:	8a 8a       	std	Y+18, r8	; 0x12
    167a:	8a 8a       	std	Y+18, r8	; 0x12
    167c:	8a 8a       	std	Y+18, r8	; 0x12
    167e:	80 8a       	std	Z+16, r8	; 0x10
    1680:	8a 80       	ldd	r8, Y+2	; 0x02
    1682:	76 76       	andi	r23, 0x66	; 102
    1684:	6c 62       	ori	r22, 0x2C	; 44
    1686:	62 62       	ori	r22, 0x22	; 34
    1688:	62 58       	subi	r22, 0x82	; 130
    168a:	58 62       	ori	r21, 0x28	; 40
    168c:	6c 76       	andi	r22, 0x6C	; 108
    168e:	76 76       	andi	r23, 0x66	; 102
    1690:	80 80       	ld	r8, Z
    1692:	80 80       	ld	r8, Z
    1694:	80 76       	andi	r24, 0x60	; 96
    1696:	76 76       	andi	r23, 0x66	; 102
    1698:	76 80       	ldd	r7, Z+6	; 0x06
    169a:	80 76       	andi	r24, 0x60	; 96
    169c:	76 8a       	std	Z+22, r7	; 0x16
    169e:	8a 8a       	std	Y+18, r8	; 0x12
    16a0:	94 8a       	std	Z+20, r9	; 0x14
    16a2:	8a 8a       	std	Y+18, r8	; 0x12
    16a4:	8a 8a       	std	Y+18, r8	; 0x12
    16a6:	94 8a       	std	Z+20, r9	; 0x14
    16a8:	80 8a       	std	Z+16, r8	; 0x10
    16aa:	8a 80       	ldd	r8, Y+2	; 0x02
    16ac:	80 76       	andi	r24, 0x60	; 96
    16ae:	6c 62       	ori	r22, 0x2C	; 44
    16b0:	62 62       	ori	r22, 0x22	; 34
    16b2:	62 58       	subi	r22, 0x82	; 130
    16b4:	58 62       	ori	r21, 0x28	; 40
    16b6:	6c 76       	andi	r22, 0x6C	; 108
    16b8:	76 76       	andi	r23, 0x66	; 102
    16ba:	80 80       	ld	r8, Z
    16bc:	80 80       	ld	r8, Z
    16be:	80 76       	andi	r24, 0x60	; 96
    16c0:	76 76       	andi	r23, 0x66	; 102
    16c2:	76 76       	andi	r23, 0x66	; 102
    16c4:	76 80       	ldd	r7, Z+6	; 0x06
    16c6:	76 80       	ldd	r7, Z+6	; 0x06
    16c8:	8a 94       	dec	r8
    16ca:	8a 8a       	std	Y+18, r8	; 0x12
    16cc:	94 8a       	std	Z+20, r9	; 0x14
    16ce:	8a 8a       	std	Y+18, r8	; 0x12
    16d0:	8a 8a       	std	Y+18, r8	; 0x12
    16d2:	8a 80       	ldd	r8, Y+2	; 0x02
    16d4:	8a 8a       	std	Y+18, r8	; 0x12
    16d6:	76 6c       	ori	r23, 0xC6	; 198
    16d8:	6c 62       	ori	r22, 0x2C	; 44
    16da:	62 62       	ori	r22, 0x22	; 34
    16dc:	62 58       	subi	r22, 0x82	; 130
    16de:	58 58       	subi	r21, 0x88	; 136
    16e0:	6c 76       	andi	r22, 0x6C	; 108
    16e2:	76 76       	andi	r23, 0x66	; 102
    16e4:	80 80       	ld	r8, Z
    16e6:	80 80       	ld	r8, Z
    16e8:	80 80       	ld	r8, Z
    16ea:	76 76       	andi	r23, 0x66	; 102
    16ec:	76 76       	andi	r23, 0x66	; 102
    16ee:	76 80       	ldd	r7, Z+6	; 0x06
    16f0:	76 80       	ldd	r7, Z+6	; 0x06
    16f2:	8a 94       	dec	r8
    16f4:	8a 8a       	std	Y+18, r8	; 0x12
    16f6:	94 8a       	std	Z+20, r9	; 0x14
    16f8:	8a 8a       	std	Y+18, r8	; 0x12
    16fa:	8a 8a       	std	Y+18, r8	; 0x12
    16fc:	8a 80       	ldd	r8, Y+2	; 0x02
    16fe:	8a 8a       	std	Y+18, r8	; 0x12
    1700:	76 6c       	ori	r23, 0xC6	; 198
    1702:	6c 62       	ori	r22, 0x2C	; 44
    1704:	62 62       	ori	r22, 0x22	; 34
    1706:	62 58       	subi	r22, 0x82	; 130
    1708:	58 58       	subi	r21, 0x88	; 136
    170a:	62 76       	andi	r22, 0x62	; 98
    170c:	76 76       	andi	r23, 0x66	; 102
    170e:	76 80       	ldd	r7, Z+6	; 0x06
    1710:	80 80       	ld	r8, Z
    1712:	80 80       	ld	r8, Z
    1714:	76 76       	andi	r23, 0x66	; 102
    1716:	76 76       	andi	r23, 0x66	; 102
    1718:	76 80       	ldd	r7, Z+6	; 0x06
    171a:	76 80       	ldd	r7, Z+6	; 0x06
    171c:	8a 94       	dec	r8
    171e:	8a 8a       	std	Y+18, r8	; 0x12
    1720:	94 8a       	std	Z+20, r9	; 0x14
    1722:	8a 8a       	std	Y+18, r8	; 0x12
    1724:	8a 8a       	std	Y+18, r8	; 0x12
    1726:	8a 80       	ldd	r8, Y+2	; 0x02
    1728:	8a 8a       	std	Y+18, r8	; 0x12
    172a:	76 76       	andi	r23, 0x66	; 102
    172c:	6c 62       	ori	r22, 0x2C	; 44
    172e:	62 62       	ori	r22, 0x22	; 34
    1730:	62 58       	subi	r22, 0x82	; 130
    1732:	58 58       	subi	r21, 0x88	; 136
    1734:	62 76       	andi	r22, 0x62	; 98
    1736:	76 76       	andi	r23, 0x66	; 102
    1738:	76 80       	ldd	r7, Z+6	; 0x06
    173a:	80 80       	ld	r8, Z
    173c:	80 80       	ld	r8, Z
    173e:	76 76       	andi	r23, 0x66	; 102
    1740:	76 76       	andi	r23, 0x66	; 102
    1742:	76 76       	andi	r23, 0x66	; 102
    1744:	76 80       	ldd	r7, Z+6	; 0x06
    1746:	8a 94       	dec	r8
    1748:	8a 8a       	std	Y+18, r8	; 0x12
    174a:	94 8a       	std	Z+20, r9	; 0x14
    174c:	8a 8a       	std	Y+18, r8	; 0x12
    174e:	8a 8a       	std	Y+18, r8	; 0x12
    1750:	8a 80       	ldd	r8, Y+2	; 0x02
    1752:	8a 8a       	std	Y+18, r8	; 0x12
    1754:	80 76       	andi	r24, 0x60	; 96
    1756:	76 6c       	ori	r23, 0xC6	; 198
    1758:	62 62       	ori	r22, 0x22	; 34
    175a:	62 62       	ori	r22, 0x22	; 34
    175c:	58 58       	subi	r21, 0x88	; 136
    175e:	62 76       	andi	r22, 0x62	; 98
    1760:	76 76       	andi	r23, 0x66	; 102
    1762:	76 80       	ldd	r7, Z+6	; 0x06
    1764:	80 80       	ld	r8, Z
    1766:	80 80       	ld	r8, Z
    1768:	76 76       	andi	r23, 0x66	; 102
    176a:	76 76       	andi	r23, 0x66	; 102
    176c:	76 76       	andi	r23, 0x66	; 102
    176e:	76 76       	andi	r23, 0x66	; 102
    1770:	8a 8a       	std	Y+18, r8	; 0x12
    1772:	8a 8a       	std	Y+18, r8	; 0x12
    1774:	8a 8a       	std	Y+18, r8	; 0x12
    1776:	8a 8a       	std	Y+18, r8	; 0x12
    1778:	8a 8a       	std	Y+18, r8	; 0x12
    177a:	8a 80       	ldd	r8, Y+2	; 0x02
    177c:	8a 8a       	std	Y+18, r8	; 0x12
    177e:	80 76       	andi	r24, 0x60	; 96
    1780:	76 6c       	ori	r23, 0xC6	; 198
    1782:	62 62       	ori	r22, 0x22	; 34
    1784:	62 62       	ori	r22, 0x22	; 34
    1786:	58 58       	subi	r21, 0x88	; 136
    1788:	62 6c       	ori	r22, 0xC2	; 194
    178a:	76 76       	andi	r23, 0x66	; 102
    178c:	76 80       	ldd	r7, Z+6	; 0x06
    178e:	80 80       	ld	r8, Z
    1790:	80 80       	ld	r8, Z
    1792:	76 76       	andi	r23, 0x66	; 102
    1794:	76 76       	andi	r23, 0x66	; 102
    1796:	76 76       	andi	r23, 0x66	; 102
    1798:	76 76       	andi	r23, 0x66	; 102
    179a:	8a 8a       	std	Y+18, r8	; 0x12
    179c:	8a 8a       	std	Y+18, r8	; 0x12
    179e:	8a 8a       	std	Y+18, r8	; 0x12
    17a0:	8a 8a       	std	Y+18, r8	; 0x12
    17a2:	8a 8a       	std	Y+18, r8	; 0x12
    17a4:	8a 80       	ldd	r8, Y+2	; 0x02
    17a6:	8a 8a       	std	Y+18, r8	; 0x12
    17a8:	80 80       	ld	r8, Z
    17aa:	76 6c       	ori	r23, 0xC6	; 198
    17ac:	62 62       	ori	r22, 0x22	; 34
    17ae:	62 62       	ori	r22, 0x22	; 34
    17b0:	58 58       	subi	r21, 0x88	; 136
    17b2:	62 6c       	ori	r22, 0xC2	; 194
    17b4:	76 76       	andi	r23, 0x66	; 102
    17b6:	76 80       	ldd	r7, Z+6	; 0x06
    17b8:	80 80       	ld	r8, Z
    17ba:	80 80       	ld	r8, Z
    17bc:	76 76       	andi	r23, 0x66	; 102
    17be:	76 76       	andi	r23, 0x66	; 102
    17c0:	76 80       	ldd	r7, Z+6	; 0x06
    17c2:	76 76       	andi	r23, 0x66	; 102
    17c4:	80 8a       	std	Z+16, r8	; 0x10
    17c6:	8a 8a       	std	Y+18, r8	; 0x12
    17c8:	8a 8a       	std	Y+18, r8	; 0x12
    17ca:	8a 8a       	std	Y+18, r8	; 0x12
    17cc:	8a 8a       	std	Y+18, r8	; 0x12
    17ce:	8a 80       	ldd	r8, Y+2	; 0x02
    17d0:	8a 8a       	std	Y+18, r8	; 0x12
    17d2:	80 80       	ld	r8, Z
    17d4:	76 6c       	ori	r23, 0xC6	; 198
    17d6:	6c 62       	ori	r22, 0x2C	; 44
    17d8:	62 62       	ori	r22, 0x22	; 34
    17da:	58 58       	subi	r21, 0x88	; 136
    17dc:	62 6c       	ori	r22, 0xC2	; 194
    17de:	76 76       	andi	r23, 0x66	; 102
    17e0:	76 80       	ldd	r7, Z+6	; 0x06
    17e2:	80 80       	ld	r8, Z
    17e4:	80 80       	ld	r8, Z
    17e6:	76 76       	andi	r23, 0x66	; 102
    17e8:	76 76       	andi	r23, 0x66	; 102
    17ea:	76 76       	andi	r23, 0x66	; 102
    17ec:	80 76       	andi	r24, 0x60	; 96
    17ee:	80 8a       	std	Z+16, r8	; 0x10
    17f0:	94 8a       	std	Z+20, r9	; 0x14
    17f2:	8a 8a       	std	Y+18, r8	; 0x12
    17f4:	8a 8a       	std	Y+18, r8	; 0x12
    17f6:	8a 8a       	std	Y+18, r8	; 0x12
    17f8:	8a 8a       	std	Y+18, r8	; 0x12
    17fa:	80 8a       	std	Z+16, r8	; 0x10
    17fc:	8a 76       	andi	r24, 0x6A	; 106
    17fe:	6c 6c       	ori	r22, 0xCC	; 204
    1800:	62 62       	ori	r22, 0x22	; 34
    1802:	62 62       	ori	r22, 0x22	; 34
    1804:	58 58       	subi	r21, 0x88	; 136
    1806:	58 6c       	ori	r21, 0xC8	; 200
    1808:	76 80       	ldd	r7, Z+6	; 0x06
    180a:	76 80       	ldd	r7, Z+6	; 0x06
    180c:	80 80       	ld	r8, Z
    180e:	80 80       	ld	r8, Z
    1810:	80 76       	andi	r24, 0x60	; 96
    1812:	76 76       	andi	r23, 0x66	; 102
    1814:	76 76       	andi	r23, 0x66	; 102
    1816:	80 76       	andi	r24, 0x60	; 96
    1818:	80 8a       	std	Z+16, r8	; 0x10
    181a:	94 8a       	std	Z+20, r9	; 0x14
    181c:	8a 94       	dec	r8
    181e:	8a 8a       	std	Y+18, r8	; 0x12
    1820:	8a 8a       	std	Y+18, r8	; 0x12
    1822:	8a 8a       	std	Y+18, r8	; 0x12
    1824:	80 8a       	std	Z+16, r8	; 0x10
    1826:	8a 76       	andi	r24, 0x6A	; 106
    1828:	6c 6c       	ori	r22, 0xCC	; 204
    182a:	62 62       	ori	r22, 0x22	; 34
    182c:	62 62       	ori	r22, 0x22	; 34
    182e:	58 58       	subi	r21, 0x88	; 136
    1830:	58 62       	ori	r21, 0x28	; 40
    1832:	76 76       	andi	r23, 0x66	; 102
    1834:	76 76       	andi	r23, 0x66	; 102
    1836:	80 80       	ld	r8, Z
    1838:	80 80       	ld	r8, Z
    183a:	80 76       	andi	r24, 0x60	; 96
    183c:	76 76       	andi	r23, 0x66	; 102
    183e:	76 76       	andi	r23, 0x66	; 102
    1840:	80 76       	andi	r24, 0x60	; 96
    1842:	80 8a       	std	Z+16, r8	; 0x10
    1844:	94 8a       	std	Z+20, r9	; 0x14
    1846:	8a 94       	dec	r8
    1848:	8a 8a       	std	Y+18, r8	; 0x12
    184a:	8a 8a       	std	Y+18, r8	; 0x12
    184c:	8a 8a       	std	Y+18, r8	; 0x12
    184e:	80 8a       	std	Z+16, r8	; 0x10
    1850:	8a 80       	ldd	r8, Y+2	; 0x02
    1852:	76 76       	andi	r23, 0x66	; 102
    1854:	6c 62       	ori	r22, 0x2C	; 44
    1856:	62 62       	ori	r22, 0x22	; 34
    1858:	58 58       	subi	r21, 0x88	; 136
    185a:	58 62       	ori	r21, 0x28	; 40
    185c:	76 76       	andi	r23, 0x66	; 102
    185e:	76 76       	andi	r23, 0x66	; 102
    1860:	80 80       	ld	r8, Z
    1862:	80 80       	ld	r8, Z
    1864:	80 76       	andi	r24, 0x60	; 96
    1866:	76 76       	andi	r23, 0x66	; 102
    1868:	76 76       	andi	r23, 0x66	; 102
    186a:	80 76       	andi	r24, 0x60	; 96
    186c:	80 8a       	std	Z+16, r8	; 0x10
    186e:	94 8a       	std	Z+20, r9	; 0x14
    1870:	8a 8a       	std	Y+18, r8	; 0x12
    1872:	8a 8a       	std	Y+18, r8	; 0x12
    1874:	8a 8a       	std	Y+18, r8	; 0x12
    1876:	8a 8a       	std	Y+18, r8	; 0x12
    1878:	80 8a       	std	Z+16, r8	; 0x10
    187a:	8a 80       	ldd	r8, Y+2	; 0x02
    187c:	76 76       	andi	r23, 0x66	; 102
    187e:	6c 62       	ori	r22, 0x2C	; 44
    1880:	62 62       	ori	r22, 0x22	; 34
    1882:	62 58       	subi	r22, 0x82	; 130
    1884:	58 62       	ori	r21, 0x28	; 40
    1886:	76 76       	andi	r23, 0x66	; 102
    1888:	76 76       	andi	r23, 0x66	; 102
    188a:	80 80       	ld	r8, Z
    188c:	80 80       	ld	r8, Z
    188e:	80 76       	andi	r24, 0x60	; 96
    1890:	76 76       	andi	r23, 0x66	; 102
    1892:	76 76       	andi	r23, 0x66	; 102
    1894:	76 76       	andi	r23, 0x66	; 102
    1896:	76 80       	ldd	r7, Z+6	; 0x06
    1898:	8a 8a       	std	Y+18, r8	; 0x12
    189a:	8a 8a       	std	Y+18, r8	; 0x12
    189c:	8a 8a       	std	Y+18, r8	; 0x12
    189e:	8a 8a       	std	Y+18, r8	; 0x12
    18a0:	8a 8a       	std	Y+18, r8	; 0x12
    18a2:	80 8a       	std	Z+16, r8	; 0x10
    18a4:	8a 80       	ldd	r8, Y+2	; 0x02
    18a6:	76 76       	andi	r23, 0x66	; 102
    18a8:	6c 62       	ori	r22, 0x2C	; 44
    18aa:	62 62       	ori	r22, 0x22	; 34
    18ac:	62 58       	subi	r22, 0x82	; 130
    18ae:	58 62       	ori	r21, 0x28	; 40
    18b0:	6c 76       	andi	r22, 0x6C	; 108
    18b2:	76 76       	andi	r23, 0x66	; 102
    18b4:	80 80       	ld	r8, Z
    18b6:	80 80       	ld	r8, Z
    18b8:	80 76       	andi	r24, 0x60	; 96
    18ba:	76 76       	andi	r23, 0x66	; 102
    18bc:	76 76       	andi	r23, 0x66	; 102
    18be:	76 76       	andi	r23, 0x66	; 102
    18c0:	76 80       	ldd	r7, Z+6	; 0x06
    18c2:	8a 8a       	std	Y+18, r8	; 0x12
    18c4:	8a 8a       	std	Y+18, r8	; 0x12
    18c6:	8a 8a       	std	Y+18, r8	; 0x12
    18c8:	8a 8a       	std	Y+18, r8	; 0x12
    18ca:	8a 8a       	std	Y+18, r8	; 0x12
    18cc:	80 8a       	std	Z+16, r8	; 0x10
    18ce:	8a 80       	ldd	r8, Y+2	; 0x02
    18d0:	80 76       	andi	r24, 0x60	; 96
    18d2:	6c 62       	ori	r22, 0x2C	; 44
    18d4:	62 62       	ori	r22, 0x22	; 34
    18d6:	62 58       	subi	r22, 0x82	; 130
    18d8:	58 62       	ori	r21, 0x28	; 40
    18da:	6c 76       	andi	r22, 0x6C	; 108
    18dc:	76 76       	andi	r23, 0x66	; 102
    18de:	80 80       	ld	r8, Z
    18e0:	80 80       	ld	r8, Z
    18e2:	80 76       	andi	r24, 0x60	; 96
    18e4:	76 76       	andi	r23, 0x66	; 102
    18e6:	76 76       	andi	r23, 0x66	; 102
    18e8:	80 76       	andi	r24, 0x60	; 96
    18ea:	76 80       	ldd	r7, Z+6	; 0x06
    18ec:	8a 8a       	std	Y+18, r8	; 0x12
    18ee:	8a 8a       	std	Y+18, r8	; 0x12
    18f0:	8a 8a       	std	Y+18, r8	; 0x12
    18f2:	8a 8a       	std	Y+18, r8	; 0x12
    18f4:	8a 8a       	std	Y+18, r8	; 0x12
    18f6:	80 8a       	std	Z+16, r8	; 0x10
    18f8:	8a 80       	ldd	r8, Y+2	; 0x02
    18fa:	80 76       	andi	r24, 0x60	; 96
    18fc:	6c 6c       	ori	r22, 0xCC	; 204
    18fe:	62 62       	ori	r22, 0x22	; 34
    1900:	62 58       	subi	r22, 0x82	; 130
    1902:	58 62       	ori	r21, 0x28	; 40
    1904:	6c 76       	andi	r22, 0x6C	; 108
    1906:	76 76       	andi	r23, 0x66	; 102
    1908:	80 80       	ld	r8, Z
    190a:	80 80       	ld	r8, Z
    190c:	80 76       	andi	r24, 0x60	; 96
    190e:	76 76       	andi	r23, 0x66	; 102
    1910:	76 76       	andi	r23, 0x66	; 102
    1912:	76 80       	ldd	r7, Z+6	; 0x06
    1914:	76 80       	ldd	r7, Z+6	; 0x06
    1916:	8a 94       	dec	r8
    1918:	8a 8a       	std	Y+18, r8	; 0x12
    191a:	8a 8a       	std	Y+18, r8	; 0x12
    191c:	8a 8a       	std	Y+18, r8	; 0x12
    191e:	8a 8a       	std	Y+18, r8	; 0x12
    1920:	8a 80       	ldd	r8, Y+2	; 0x02
    1922:	8a 8a       	std	Y+18, r8	; 0x12
    1924:	80 6c       	ori	r24, 0xC0	; 192
    1926:	6c 6c       	ori	r22, 0xCC	; 204
    1928:	62 62       	ori	r22, 0x22	; 34
    192a:	62 58       	subi	r22, 0x82	; 130
    192c:	58 62       	ori	r21, 0x28	; 40
    192e:	6c 76       	andi	r22, 0x6C	; 108
    1930:	80 76       	andi	r24, 0x60	; 96
    1932:	80 80       	ld	r8, Z
    1934:	80 80       	ld	r8, Z
    1936:	80 80       	ld	r8, Z
    1938:	76 76       	andi	r23, 0x66	; 102
    193a:	76 76       	andi	r23, 0x66	; 102
    193c:	76 80       	ldd	r7, Z+6	; 0x06
    193e:	76 80       	ldd	r7, Z+6	; 0x06
    1940:	8a 94       	dec	r8
    1942:	8a 8a       	std	Y+18, r8	; 0x12
    1944:	94 8a       	std	Z+20, r9	; 0x14
    1946:	8a 8a       	std	Y+18, r8	; 0x12
    1948:	8a 8a       	std	Y+18, r8	; 0x12
    194a:	8a 80       	ldd	r8, Y+2	; 0x02
    194c:	8a 8a       	std	Y+18, r8	; 0x12
    194e:	76 76       	andi	r23, 0x66	; 102
    1950:	6c 6c       	ori	r22, 0xCC	; 204
    1952:	62 62       	ori	r22, 0x22	; 34
    1954:	62 58       	subi	r22, 0x82	; 130
    1956:	58 58       	subi	r21, 0x88	; 136
    1958:	62 76       	andi	r22, 0x62	; 98
    195a:	76 76       	andi	r23, 0x66	; 102
    195c:	76 80       	ldd	r7, Z+6	; 0x06
    195e:	80 80       	ld	r8, Z
    1960:	80 80       	ld	r8, Z
    1962:	76 76       	andi	r23, 0x66	; 102
    1964:	76 76       	andi	r23, 0x66	; 102
    1966:	76 80       	ldd	r7, Z+6	; 0x06
    1968:	76 80       	ldd	r7, Z+6	; 0x06
    196a:	8a 94       	dec	r8
    196c:	8a 8a       	std	Y+18, r8	; 0x12
    196e:	8a 8a       	std	Y+18, r8	; 0x12
    1970:	8a 8a       	std	Y+18, r8	; 0x12
    1972:	8a 8a       	std	Y+18, r8	; 0x12
    1974:	8a 80       	ldd	r8, Y+2	; 0x02
    1976:	8a 8a       	std	Y+18, r8	; 0x12
    1978:	80 76       	andi	r24, 0x60	; 96
    197a:	76 6c       	ori	r23, 0xC6	; 198
    197c:	62 62       	ori	r22, 0x22	; 34
    197e:	62 62       	ori	r22, 0x22	; 34
    1980:	58 58       	subi	r21, 0x88	; 136
    1982:	62 76       	andi	r22, 0x62	; 98
    1984:	76 76       	andi	r23, 0x66	; 102
    1986:	76 80       	ldd	r7, Z+6	; 0x06
    1988:	80 80       	ld	r8, Z
    198a:	80 80       	ld	r8, Z
    198c:	76 76       	andi	r23, 0x66	; 102
    198e:	76 76       	andi	r23, 0x66	; 102
    1990:	76 80       	ldd	r7, Z+6	; 0x06
    1992:	76 80       	ldd	r7, Z+6	; 0x06
    1994:	8a 8a       	std	Y+18, r8	; 0x12
    1996:	8a 8a       	std	Y+18, r8	; 0x12
    1998:	8a 8a       	std	Y+18, r8	; 0x12
    199a:	8a 8a       	std	Y+18, r8	; 0x12
    199c:	8a 8a       	std	Y+18, r8	; 0x12
    199e:	8a 80       	ldd	r8, Y+2	; 0x02
    19a0:	8a 8a       	std	Y+18, r8	; 0x12
    19a2:	80 76       	andi	r24, 0x60	; 96
    19a4:	76 6c       	ori	r23, 0xC6	; 198
    19a6:	62 62       	ori	r22, 0x22	; 34
    19a8:	62 62       	ori	r22, 0x22	; 34
    19aa:	58 58       	subi	r21, 0x88	; 136
    19ac:	62 76       	andi	r22, 0x62	; 98
    19ae:	76 76       	andi	r23, 0x66	; 102
    19b0:	76 80       	ldd	r7, Z+6	; 0x06
    19b2:	80 80       	ld	r8, Z
    19b4:	80 80       	ld	r8, Z
    19b6:	76 76       	andi	r23, 0x66	; 102
    19b8:	76 76       	andi	r23, 0x66	; 102
    19ba:	76 76       	andi	r23, 0x66	; 102
    19bc:	76 76       	andi	r23, 0x66	; 102
    19be:	80 8a       	std	Z+16, r8	; 0x10
    19c0:	8a 8a       	std	Y+18, r8	; 0x12
    19c2:	8a 8a       	std	Y+18, r8	; 0x12
    19c4:	8a 8a       	std	Y+18, r8	; 0x12
    19c6:	8a 8a       	std	Y+18, r8	; 0x12
    19c8:	8a 80       	ldd	r8, Y+2	; 0x02
    19ca:	8a 8a       	std	Y+18, r8	; 0x12
    19cc:	80 76       	andi	r24, 0x60	; 96
    19ce:	76 6c       	ori	r23, 0xC6	; 198
    19d0:	62 62       	ori	r22, 0x22	; 34
    19d2:	62 62       	ori	r22, 0x22	; 34
    19d4:	58 58       	subi	r21, 0x88	; 136
    19d6:	62 6c       	ori	r22, 0xC2	; 194
    19d8:	76 76       	andi	r23, 0x66	; 102
    19da:	76 80       	ldd	r7, Z+6	; 0x06
    19dc:	80 80       	ld	r8, Z
    19de:	80 80       	ld	r8, Z
    19e0:	76 76       	andi	r23, 0x66	; 102
    19e2:	76 76       	andi	r23, 0x66	; 102
    19e4:	76 76       	andi	r23, 0x66	; 102
    19e6:	76 76       	andi	r23, 0x66	; 102
    19e8:	80 8a       	std	Z+16, r8	; 0x10
    19ea:	8a 8a       	std	Y+18, r8	; 0x12
    19ec:	8a 8a       	std	Y+18, r8	; 0x12
    19ee:	8a 8a       	std	Y+18, r8	; 0x12
    19f0:	8a 8a       	std	Y+18, r8	; 0x12
    19f2:	8a 80       	ldd	r8, Y+2	; 0x02
    19f4:	8a 8a       	std	Y+18, r8	; 0x12
    19f6:	80 80       	ld	r8, Z
    19f8:	76 6c       	ori	r23, 0xC6	; 198
    19fa:	6c 62       	ori	r22, 0x2C	; 44
    19fc:	62 62       	ori	r22, 0x22	; 34
    19fe:	58 58       	subi	r21, 0x88	; 136
    1a00:	62 6c       	ori	r22, 0xC2	; 194
    1a02:	76 76       	andi	r23, 0x66	; 102
    1a04:	76 80       	ldd	r7, Z+6	; 0x06
    1a06:	80 80       	ld	r8, Z
    1a08:	80 80       	ld	r8, Z
    1a0a:	76 76       	andi	r23, 0x66	; 102
    1a0c:	76 76       	andi	r23, 0x66	; 102
    1a0e:	76 80       	ldd	r7, Z+6	; 0x06
    1a10:	76 76       	andi	r23, 0x66	; 102
    1a12:	80 8a       	std	Z+16, r8	; 0x10
    1a14:	8a 8a       	std	Y+18, r8	; 0x12
    1a16:	8a 8a       	std	Y+18, r8	; 0x12
    1a18:	8a 8a       	std	Y+18, r8	; 0x12
    1a1a:	8a 8a       	std	Y+18, r8	; 0x12
    1a1c:	8a 80       	ldd	r8, Y+2	; 0x02
    1a1e:	8a 8a       	std	Y+18, r8	; 0x12
    1a20:	80 80       	ld	r8, Z
    1a22:	76 6c       	ori	r23, 0xC6	; 198
    1a24:	6c 62       	ori	r22, 0x2C	; 44
    1a26:	62 62       	ori	r22, 0x22	; 34
    1a28:	58 58       	subi	r21, 0x88	; 136
    1a2a:	62 6c       	ori	r22, 0xC2	; 194
    1a2c:	76 76       	andi	r23, 0x66	; 102
    1a2e:	76 80       	ldd	r7, Z+6	; 0x06
    1a30:	80 80       	ld	r8, Z
    1a32:	80 80       	ld	r8, Z
    1a34:	76 76       	andi	r23, 0x66	; 102
    1a36:	76 76       	andi	r23, 0x66	; 102
    1a38:	76 76       	andi	r23, 0x66	; 102
    1a3a:	80 76       	andi	r24, 0x60	; 96
    1a3c:	80 8a       	std	Z+16, r8	; 0x10
    1a3e:	94 8a       	std	Z+20, r9	; 0x14
    1a40:	8a 8a       	std	Y+18, r8	; 0x12
    1a42:	8a 8a       	std	Y+18, r8	; 0x12
    1a44:	8a 8a       	std	Y+18, r8	; 0x12
    1a46:	8a 8a       	std	Y+18, r8	; 0x12
    1a48:	80 8a       	std	Z+16, r8	; 0x10
    1a4a:	8a 80       	ldd	r8, Y+2	; 0x02
    1a4c:	6c 76       	andi	r22, 0x6C	; 108
    1a4e:	6c 62       	ori	r22, 0x2C	; 44
    1a50:	62 62       	ori	r22, 0x22	; 34
    1a52:	58 58       	subi	r21, 0x88	; 136
    1a54:	62 6c       	ori	r22, 0xC2	; 194
    1a56:	76 80       	ldd	r7, Z+6	; 0x06
    1a58:	76 80       	ldd	r7, Z+6	; 0x06
    1a5a:	80 80       	ld	r8, Z
    1a5c:	80 80       	ld	r8, Z
    1a5e:	80 76       	andi	r24, 0x60	; 96
    1a60:	76 76       	andi	r23, 0x66	; 102
    1a62:	76 76       	andi	r23, 0x66	; 102
    1a64:	80 76       	andi	r24, 0x60	; 96
    1a66:	80 8a       	std	Z+16, r8	; 0x10
    1a68:	94 8a       	std	Z+20, r9	; 0x14
    1a6a:	8a 8a       	std	Y+18, r8	; 0x12
    1a6c:	8a 8a       	std	Y+18, r8	; 0x12
    1a6e:	8a 8a       	std	Y+18, r8	; 0x12
    1a70:	8a 8a       	std	Y+18, r8	; 0x12
    1a72:	80 8a       	std	Z+16, r8	; 0x10
    1a74:	8a 80       	ldd	r8, Y+2	; 0x02
    1a76:	76 76       	andi	r23, 0x66	; 102
    1a78:	6c 62       	ori	r22, 0x2C	; 44
    1a7a:	62 62       	ori	r22, 0x22	; 34
    1a7c:	58 58       	subi	r21, 0x88	; 136
    1a7e:	58 62       	ori	r21, 0x28	; 40
    1a80:	76 76       	andi	r23, 0x66	; 102
    1a82:	76 76       	andi	r23, 0x66	; 102
    1a84:	80 80       	ld	r8, Z
    1a86:	80 80       	ld	r8, Z
    1a88:	80 76       	andi	r24, 0x60	; 96
    1a8a:	76 76       	andi	r23, 0x66	; 102
    1a8c:	76 76       	andi	r23, 0x66	; 102
    1a8e:	80 76       	andi	r24, 0x60	; 96
    1a90:	80 8a       	std	Z+16, r8	; 0x10
    1a92:	8a 8a       	std	Y+18, r8	; 0x12
    1a94:	8a 8a       	std	Y+18, r8	; 0x12
    1a96:	8a 8a       	std	Y+18, r8	; 0x12
    1a98:	8a 8a       	std	Y+18, r8	; 0x12
    1a9a:	8a 8a       	std	Y+18, r8	; 0x12
    1a9c:	80 8a       	std	Z+16, r8	; 0x10
    1a9e:	8a 80       	ldd	r8, Y+2	; 0x02
    1aa0:	76 76       	andi	r23, 0x66	; 102
    1aa2:	6c 62       	ori	r22, 0x2C	; 44
    1aa4:	62 62       	ori	r22, 0x22	; 34
    1aa6:	62 58       	subi	r22, 0x82	; 130
    1aa8:	58 62       	ori	r21, 0x28	; 40
    1aaa:	76 76       	andi	r23, 0x66	; 102
    1aac:	76 76       	andi	r23, 0x66	; 102
    1aae:	80 80       	ld	r8, Z
    1ab0:	80 80       	ld	r8, Z
    1ab2:	80 76       	andi	r24, 0x60	; 96
    1ab4:	76 76       	andi	r23, 0x66	; 102
    1ab6:	76 76       	andi	r23, 0x66	; 102
    1ab8:	80 76       	andi	r24, 0x60	; 96
    1aba:	80 80       	ld	r8, Z
    1abc:	8a 8a       	std	Y+18, r8	; 0x12
    1abe:	8a 8a       	std	Y+18, r8	; 0x12
    1ac0:	8a 8a       	std	Y+18, r8	; 0x12
    1ac2:	8a 8a       	std	Y+18, r8	; 0x12
    1ac4:	8a 8a       	std	Y+18, r8	; 0x12
    1ac6:	80 8a       	std	Z+16, r8	; 0x10
    1ac8:	8a 80       	ldd	r8, Y+2	; 0x02
    1aca:	76 76       	andi	r23, 0x66	; 102
    1acc:	6c 62       	ori	r22, 0x2C	; 44
    1ace:	62 62       	ori	r22, 0x22	; 34
    1ad0:	62 58       	subi	r22, 0x82	; 130
    1ad2:	58 62       	ori	r21, 0x28	; 40
    1ad4:	76 76       	andi	r23, 0x66	; 102
    1ad6:	76 76       	andi	r23, 0x66	; 102
    1ad8:	80 80       	ld	r8, Z
    1ada:	80 80       	ld	r8, Z
    1adc:	80 76       	andi	r24, 0x60	; 96
    1ade:	76 76       	andi	r23, 0x66	; 102
    1ae0:	76 76       	andi	r23, 0x66	; 102
    1ae2:	76 76       	andi	r23, 0x66	; 102
    1ae4:	76 80       	ldd	r7, Z+6	; 0x06
    1ae6:	8a 8a       	std	Y+18, r8	; 0x12
    1ae8:	8a 8a       	std	Y+18, r8	; 0x12
    1aea:	8a 8a       	std	Y+18, r8	; 0x12
    1aec:	8a 8a       	std	Y+18, r8	; 0x12
    1aee:	8a 8a       	std	Y+18, r8	; 0x12
    1af0:	80 8a       	std	Z+16, r8	; 0x10
    1af2:	8a 80       	ldd	r8, Y+2	; 0x02
    1af4:	76 76       	andi	r23, 0x66	; 102
    1af6:	6c 62       	ori	r22, 0x2C	; 44
    1af8:	62 62       	ori	r22, 0x22	; 34
    1afa:	62 58       	subi	r22, 0x82	; 130
    1afc:	58 62       	ori	r21, 0x28	; 40
    1afe:	6c 76       	andi	r22, 0x6C	; 108
    1b00:	76 76       	andi	r23, 0x66	; 102
    1b02:	80 80       	ld	r8, Z
    1b04:	80 80       	ld	r8, Z
    1b06:	80 76       	andi	r24, 0x60	; 96
    1b08:	76 76       	andi	r23, 0x66	; 102
    1b0a:	76 76       	andi	r23, 0x66	; 102
    1b0c:	76 76       	andi	r23, 0x66	; 102
    1b0e:	76 80       	ldd	r7, Z+6	; 0x06
    1b10:	8a 8a       	std	Y+18, r8	; 0x12
    1b12:	8a 8a       	std	Y+18, r8	; 0x12
    1b14:	8a 8a       	std	Y+18, r8	; 0x12
    1b16:	8a 8a       	std	Y+18, r8	; 0x12
    1b18:	8a 8a       	std	Y+18, r8	; 0x12
    1b1a:	80 8a       	std	Z+16, r8	; 0x10
    1b1c:	8a 80       	ldd	r8, Y+2	; 0x02
    1b1e:	80 76       	andi	r24, 0x60	; 96
    1b20:	6c 6c       	ori	r22, 0xCC	; 204
    1b22:	62 62       	ori	r22, 0x22	; 34
    1b24:	62 58       	subi	r22, 0x82	; 130
    1b26:	58 62       	ori	r21, 0x28	; 40
    1b28:	6c 76       	andi	r22, 0x6C	; 108
    1b2a:	76 76       	andi	r23, 0x66	; 102
    1b2c:	80 80       	ld	r8, Z
    1b2e:	80 80       	ld	r8, Z
    1b30:	80 76       	andi	r24, 0x60	; 96
    1b32:	76 76       	andi	r23, 0x66	; 102
    1b34:	76 76       	andi	r23, 0x66	; 102
    1b36:	80 76       	andi	r24, 0x60	; 96
    1b38:	76 80       	ldd	r7, Z+6	; 0x06
    1b3a:	8a 8a       	std	Y+18, r8	; 0x12
    1b3c:	8a 8a       	std	Y+18, r8	; 0x12
    1b3e:	8a 8a       	std	Y+18, r8	; 0x12
    1b40:	8a 8a       	std	Y+18, r8	; 0x12
    1b42:	8a 8a       	std	Y+18, r8	; 0x12
    1b44:	80 8a       	std	Z+16, r8	; 0x10
    1b46:	8a 80       	ldd	r8, Y+2	; 0x02
    1b48:	80 76       	andi	r24, 0x60	; 96
    1b4a:	6c 6c       	ori	r22, 0xCC	; 204
    1b4c:	62 62       	ori	r22, 0x22	; 34
    1b4e:	62 58       	subi	r22, 0x82	; 130
    1b50:	58 62       	ori	r21, 0x28	; 40
    1b52:	6c 76       	andi	r22, 0x6C	; 108
    1b54:	76 76       	andi	r23, 0x66	; 102
    1b56:	76 80       	ldd	r7, Z+6	; 0x06
    1b58:	80 80       	ld	r8, Z
    1b5a:	80 76       	andi	r24, 0x60	; 96
    1b5c:	76 76       	andi	r23, 0x66	; 102
    1b5e:	76 76       	andi	r23, 0x66	; 102
    1b60:	76 80       	ldd	r7, Z+6	; 0x06
    1b62:	76 80       	ldd	r7, Z+6	; 0x06
    1b64:	8a 94       	dec	r8
    1b66:	8a 8a       	std	Y+18, r8	; 0x12
    1b68:	8a 8a       	std	Y+18, r8	; 0x12
    1b6a:	8a 8a       	std	Y+18, r8	; 0x12
    1b6c:	8a 8a       	std	Y+18, r8	; 0x12
    1b6e:	8a 80       	ldd	r8, Y+2	; 0x02
    1b70:	8a 8a       	std	Y+18, r8	; 0x12
    1b72:	80 6c       	ori	r24, 0xC0	; 192
    1b74:	76 6c       	ori	r23, 0xC6	; 198
    1b76:	62 62       	ori	r22, 0x22	; 34
    1b78:	62 62       	ori	r22, 0x22	; 34
    1b7a:	58 62       	ori	r21, 0x28	; 40
    1b7c:	6c 76       	andi	r22, 0x6C	; 108
    1b7e:	80 76       	andi	r24, 0x60	; 96
    1b80:	80 80       	ld	r8, Z
    1b82:	80 80       	ld	r8, Z
    1b84:	80 80       	ld	r8, Z
    1b86:	76 76       	andi	r23, 0x66	; 102
    1b88:	76 76       	andi	r23, 0x66	; 102
    1b8a:	76 80       	ldd	r7, Z+6	; 0x06
    1b8c:	76 80       	ldd	r7, Z+6	; 0x06
    1b8e:	8a 94       	dec	r8
    1b90:	8a 8a       	std	Y+18, r8	; 0x12
    1b92:	8a 8a       	std	Y+18, r8	; 0x12
    1b94:	8a 8a       	std	Y+18, r8	; 0x12
    1b96:	8a 8a       	std	Y+18, r8	; 0x12
    1b98:	8a 80       	ldd	r8, Y+2	; 0x02
    1b9a:	8a 8a       	std	Y+18, r8	; 0x12
    1b9c:	80 76       	andi	r24, 0x60	; 96
    1b9e:	76 6c       	ori	r23, 0xC6	; 198
    1ba0:	62 62       	ori	r22, 0x22	; 34
    1ba2:	62 62       	ori	r22, 0x22	; 34
    1ba4:	58 58       	subi	r21, 0x88	; 136
    1ba6:	62 76       	andi	r22, 0x62	; 98
    1ba8:	76 76       	andi	r23, 0x66	; 102
    1baa:	76 80       	ldd	r7, Z+6	; 0x06
    1bac:	80 80       	ld	r8, Z
    1bae:	80 80       	ld	r8, Z
    1bb0:	76 76       	andi	r23, 0x66	; 102
    1bb2:	76 76       	andi	r23, 0x66	; 102
    1bb4:	76 80       	ldd	r7, Z+6	; 0x06
    1bb6:	76 80       	ldd	r7, Z+6	; 0x06
    1bb8:	80 8a       	std	Z+16, r8	; 0x10
    1bba:	8a 8a       	std	Y+18, r8	; 0x12
    1bbc:	8a 8a       	std	Y+18, r8	; 0x12
    1bbe:	8a 8a       	std	Y+18, r8	; 0x12
    1bc0:	8a 8a       	std	Y+18, r8	; 0x12
    1bc2:	8a 80       	ldd	r8, Y+2	; 0x02
    1bc4:	8a 8a       	std	Y+18, r8	; 0x12
    1bc6:	80 76       	andi	r24, 0x60	; 96
    1bc8:	76 6c       	ori	r23, 0xC6	; 198
    1bca:	62 62       	ori	r22, 0x22	; 34
    1bcc:	62 62       	ori	r22, 0x22	; 34
    1bce:	58 58       	subi	r21, 0x88	; 136
    1bd0:	62 76       	andi	r22, 0x62	; 98
    1bd2:	76 76       	andi	r23, 0x66	; 102
    1bd4:	76 80       	ldd	r7, Z+6	; 0x06
    1bd6:	80 80       	ld	r8, Z
    1bd8:	80 80       	ld	r8, Z
    1bda:	76 76       	andi	r23, 0x66	; 102
    1bdc:	76 76       	andi	r23, 0x66	; 102
    1bde:	76 80       	ldd	r7, Z+6	; 0x06
    1be0:	76 80       	ldd	r7, Z+6	; 0x06
    1be2:	80 8a       	std	Z+16, r8	; 0x10
    1be4:	8a 8a       	std	Y+18, r8	; 0x12
    1be6:	8a 8a       	std	Y+18, r8	; 0x12
    1be8:	8a 8a       	std	Y+18, r8	; 0x12
    1bea:	8a 8a       	std	Y+18, r8	; 0x12
    1bec:	8a 80       	ldd	r8, Y+2	; 0x02
    1bee:	8a 8a       	std	Y+18, r8	; 0x12
    1bf0:	80 76       	andi	r24, 0x60	; 96
    1bf2:	76 6c       	ori	r23, 0xC6	; 198
    1bf4:	62 62       	ori	r22, 0x22	; 34
    1bf6:	62 62       	ori	r22, 0x22	; 34
    1bf8:	62 58       	subi	r22, 0x82	; 130
    1bfa:	62 76       	andi	r22, 0x62	; 98
    1bfc:	76 76       	andi	r23, 0x66	; 102
    1bfe:	76 80       	ldd	r7, Z+6	; 0x06
    1c00:	80 80       	ld	r8, Z
    1c02:	80 80       	ld	r8, Z
    1c04:	76 76       	andi	r23, 0x66	; 102
    1c06:	76 76       	andi	r23, 0x66	; 102
    1c08:	76 76       	andi	r23, 0x66	; 102
    1c0a:	76 76       	andi	r23, 0x66	; 102
    1c0c:	80 8a       	std	Z+16, r8	; 0x10
    1c0e:	8a 8a       	std	Y+18, r8	; 0x12
    1c10:	8a 8a       	std	Y+18, r8	; 0x12
    1c12:	8a 8a       	std	Y+18, r8	; 0x12
    1c14:	8a 8a       	std	Y+18, r8	; 0x12
    1c16:	8a 80       	ldd	r8, Y+2	; 0x02
    1c18:	8a 8a       	std	Y+18, r8	; 0x12
    1c1a:	80 76       	andi	r24, 0x60	; 96
    1c1c:	76 6c       	ori	r23, 0xC6	; 198
    1c1e:	6c 62       	ori	r22, 0x2C	; 44
    1c20:	62 62       	ori	r22, 0x22	; 34
    1c22:	58 58       	subi	r21, 0x88	; 136
    1c24:	62 6c       	ori	r22, 0xC2	; 194
    1c26:	76 76       	andi	r23, 0x66	; 102
    1c28:	76 80       	ldd	r7, Z+6	; 0x06
    1c2a:	80 80       	ld	r8, Z
    1c2c:	80 80       	ld	r8, Z
    1c2e:	76 76       	andi	r23, 0x66	; 102
    1c30:	76 76       	andi	r23, 0x66	; 102
    1c32:	76 76       	andi	r23, 0x66	; 102
    1c34:	76 76       	andi	r23, 0x66	; 102
    1c36:	80 8a       	std	Z+16, r8	; 0x10
    1c38:	8a 8a       	std	Y+18, r8	; 0x12
    1c3a:	8a 8a       	std	Y+18, r8	; 0x12
    1c3c:	8a 8a       	std	Y+18, r8	; 0x12
    1c3e:	8a 8a       	std	Y+18, r8	; 0x12
    1c40:	8a 80       	ldd	r8, Y+2	; 0x02
    1c42:	8a 8a       	std	Y+18, r8	; 0x12
    1c44:	80 80       	ld	r8, Z
    1c46:	76 6c       	ori	r23, 0xC6	; 198
    1c48:	6c 62       	ori	r22, 0x2C	; 44
    1c4a:	62 62       	ori	r22, 0x22	; 34
    1c4c:	62 58       	subi	r22, 0x82	; 130
    1c4e:	62 6c       	ori	r22, 0xC2	; 194
    1c50:	76 76       	andi	r23, 0x66	; 102
    1c52:	76 80       	ldd	r7, Z+6	; 0x06
    1c54:	80 80       	ld	r8, Z
    1c56:	80 80       	ld	r8, Z
    1c58:	76 76       	andi	r23, 0x66	; 102
    1c5a:	76 76       	andi	r23, 0x66	; 102
    1c5c:	76 80       	ldd	r7, Z+6	; 0x06
    1c5e:	76 76       	andi	r23, 0x66	; 102
    1c60:	80 8a       	std	Z+16, r8	; 0x10
    1c62:	8a 8a       	std	Y+18, r8	; 0x12
    1c64:	8a 8a       	std	Y+18, r8	; 0x12
    1c66:	8a 8a       	std	Y+18, r8	; 0x12
    1c68:	8a 8a       	std	Y+18, r8	; 0x12
    1c6a:	8a 80       	ldd	r8, Y+2	; 0x02
    1c6c:	8a 8a       	std	Y+18, r8	; 0x12
    1c6e:	80 80       	ld	r8, Z
    1c70:	76 6c       	ori	r23, 0xC6	; 198
    1c72:	6c 6c       	ori	r22, 0xCC	; 204
    1c74:	62 62       	ori	r22, 0x22	; 34
    1c76:	62 58       	subi	r22, 0x82	; 130
    1c78:	62 6c       	ori	r22, 0xC2	; 194
    1c7a:	76 76       	andi	r23, 0x66	; 102
    1c7c:	76 76       	andi	r23, 0x66	; 102
    1c7e:	80 80       	ld	r8, Z
    1c80:	80 80       	ld	r8, Z
    1c82:	76 76       	andi	r23, 0x66	; 102
    1c84:	76 76       	andi	r23, 0x66	; 102
    1c86:	76 76       	andi	r23, 0x66	; 102
    1c88:	80 76       	andi	r24, 0x60	; 96
    1c8a:	80 8a       	std	Z+16, r8	; 0x10
    1c8c:	8a 8a       	std	Y+18, r8	; 0x12
    1c8e:	8a 8a       	std	Y+18, r8	; 0x12
    1c90:	8a 8a       	std	Y+18, r8	; 0x12
    1c92:	8a 8a       	std	Y+18, r8	; 0x12
    1c94:	8a 8a       	std	Y+18, r8	; 0x12
    1c96:	80 8a       	std	Z+16, r8	; 0x10
    1c98:	8a 80       	ldd	r8, Y+2	; 0x02
    1c9a:	6c 76       	andi	r22, 0x6C	; 108
    1c9c:	6c 62       	ori	r22, 0x2C	; 44
    1c9e:	62 62       	ori	r22, 0x22	; 34
    1ca0:	62 62       	ori	r22, 0x22	; 34
    1ca2:	62 6c       	ori	r22, 0xC2	; 194
    1ca4:	76 80       	ldd	r7, Z+6	; 0x06
    1ca6:	76 80       	ldd	r7, Z+6	; 0x06
    1ca8:	80 80       	ld	r8, Z
    1caa:	80 80       	ld	r8, Z
    1cac:	80 76       	andi	r24, 0x60	; 96
    1cae:	76 76       	andi	r23, 0x66	; 102
    1cb0:	76 76       	andi	r23, 0x66	; 102
    1cb2:	80 76       	andi	r24, 0x60	; 96
    1cb4:	80 8a       	std	Z+16, r8	; 0x10
    1cb6:	8a 8a       	std	Y+18, r8	; 0x12
    1cb8:	8a 8a       	std	Y+18, r8	; 0x12
    1cba:	8a 8a       	std	Y+18, r8	; 0x12
    1cbc:	8a 8a       	std	Y+18, r8	; 0x12
    1cbe:	8a 8a       	std	Y+18, r8	; 0x12
    1cc0:	80 8a       	std	Z+16, r8	; 0x10
    1cc2:	8a 80       	ldd	r8, Y+2	; 0x02
    1cc4:	76 76       	andi	r23, 0x66	; 102
    1cc6:	6c 62       	ori	r22, 0x2C	; 44
    1cc8:	62 62       	ori	r22, 0x22	; 34
    1cca:	62 58       	subi	r22, 0x82	; 130
    1ccc:	58 62       	ori	r21, 0x28	; 40
    1cce:	76 76       	andi	r23, 0x66	; 102
    1cd0:	76 76       	andi	r23, 0x66	; 102
    1cd2:	80 80       	ld	r8, Z
    1cd4:	80 80       	ld	r8, Z
    1cd6:	80 76       	andi	r24, 0x60	; 96
    1cd8:	76 76       	andi	r23, 0x66	; 102
    1cda:	76 76       	andi	r23, 0x66	; 102
    1cdc:	80 76       	andi	r24, 0x60	; 96
    1cde:	80 80       	ld	r8, Z
    1ce0:	8a 8a       	std	Y+18, r8	; 0x12
    1ce2:	8a 8a       	std	Y+18, r8	; 0x12
    1ce4:	8a 8a       	std	Y+18, r8	; 0x12
    1ce6:	8a 8a       	std	Y+18, r8	; 0x12
    1ce8:	8a 8a       	std	Y+18, r8	; 0x12
    1cea:	80 8a       	std	Z+16, r8	; 0x10
    1cec:	8a 80       	ldd	r8, Y+2	; 0x02
    1cee:	76 76       	andi	r23, 0x66	; 102
    1cf0:	6c 62       	ori	r22, 0x2C	; 44
    1cf2:	62 62       	ori	r22, 0x22	; 34
    1cf4:	62 58       	subi	r22, 0x82	; 130
    1cf6:	58 62       	ori	r21, 0x28	; 40
    1cf8:	76 76       	andi	r23, 0x66	; 102
    1cfa:	76 76       	andi	r23, 0x66	; 102
    1cfc:	80 80       	ld	r8, Z
    1cfe:	80 80       	ld	r8, Z
    1d00:	80 76       	andi	r24, 0x60	; 96
    1d02:	76 76       	andi	r23, 0x66	; 102
    1d04:	76 76       	andi	r23, 0x66	; 102
    1d06:	80 76       	andi	r24, 0x60	; 96
    1d08:	76 80       	ldd	r7, Z+6	; 0x06
    1d0a:	8a 8a       	std	Y+18, r8	; 0x12
    1d0c:	8a 8a       	std	Y+18, r8	; 0x12
    1d0e:	8a 8a       	std	Y+18, r8	; 0x12
    1d10:	8a 8a       	std	Y+18, r8	; 0x12
    1d12:	8a 8a       	std	Y+18, r8	; 0x12
    1d14:	80 8a       	std	Z+16, r8	; 0x10
    1d16:	8a 80       	ldd	r8, Y+2	; 0x02
    1d18:	76 76       	andi	r23, 0x66	; 102
    1d1a:	6c 6c       	ori	r22, 0xCC	; 204
    1d1c:	62 62       	ori	r22, 0x22	; 34
    1d1e:	62 62       	ori	r22, 0x22	; 34
    1d20:	58 62       	ori	r21, 0x28	; 40
    1d22:	76 76       	andi	r23, 0x66	; 102
    1d24:	76 76       	andi	r23, 0x66	; 102
    1d26:	80 80       	ld	r8, Z
    1d28:	80 80       	ld	r8, Z
    1d2a:	80 76       	andi	r24, 0x60	; 96
    1d2c:	76 76       	andi	r23, 0x66	; 102
    1d2e:	76 76       	andi	r23, 0x66	; 102
    1d30:	76 76       	andi	r23, 0x66	; 102
    1d32:	76 80       	ldd	r7, Z+6	; 0x06
    1d34:	8a 8a       	std	Y+18, r8	; 0x12
    1d36:	8a 8a       	std	Y+18, r8	; 0x12
    1d38:	8a 8a       	std	Y+18, r8	; 0x12
    1d3a:	8a 8a       	std	Y+18, r8	; 0x12
    1d3c:	8a 8a       	std	Y+18, r8	; 0x12
    1d3e:	80 8a       	std	Z+16, r8	; 0x10
    1d40:	8a 80       	ldd	r8, Y+2	; 0x02
    1d42:	76 76       	andi	r23, 0x66	; 102
    1d44:	6c 6c       	ori	r22, 0xCC	; 204
    1d46:	62 62       	ori	r22, 0x22	; 34
    1d48:	62 62       	ori	r22, 0x22	; 34
    1d4a:	58 62       	ori	r21, 0x28	; 40
    1d4c:	6c 76       	andi	r22, 0x6C	; 108
    1d4e:	76 76       	andi	r23, 0x66	; 102
    1d50:	80 80       	ld	r8, Z
    1d52:	80 80       	ld	r8, Z
    1d54:	80 76       	andi	r24, 0x60	; 96
    1d56:	76 76       	andi	r23, 0x66	; 102
    1d58:	76 76       	andi	r23, 0x66	; 102
    1d5a:	76 76       	andi	r23, 0x66	; 102
    1d5c:	76 80       	ldd	r7, Z+6	; 0x06
    1d5e:	8a 8a       	std	Y+18, r8	; 0x12
    1d60:	8a 8a       	std	Y+18, r8	; 0x12
    1d62:	8a 8a       	std	Y+18, r8	; 0x12
    1d64:	8a 8a       	std	Y+18, r8	; 0x12
    1d66:	8a 8a       	std	Y+18, r8	; 0x12
    1d68:	80 8a       	std	Z+16, r8	; 0x10
    1d6a:	8a 80       	ldd	r8, Y+2	; 0x02
    1d6c:	80 76       	andi	r24, 0x60	; 96
    1d6e:	6c 6c       	ori	r22, 0xCC	; 204
    1d70:	6c 62       	ori	r22, 0x2C	; 44
    1d72:	62 62       	ori	r22, 0x22	; 34
    1d74:	58 62       	ori	r21, 0x28	; 40
    1d76:	6c 76       	andi	r22, 0x6C	; 108
    1d78:	76 76       	andi	r23, 0x66	; 102
    1d7a:	80 80       	ld	r8, Z
    1d7c:	80 80       	ld	r8, Z
    1d7e:	80 76       	andi	r24, 0x60	; 96
    1d80:	76 76       	andi	r23, 0x66	; 102
    1d82:	76 76       	andi	r23, 0x66	; 102
    1d84:	80 76       	andi	r24, 0x60	; 96
    1d86:	76 80       	ldd	r7, Z+6	; 0x06
    1d88:	8a 8a       	std	Y+18, r8	; 0x12
    1d8a:	8a 8a       	std	Y+18, r8	; 0x12
    1d8c:	8a 8a       	std	Y+18, r8	; 0x12
    1d8e:	8a 8a       	std	Y+18, r8	; 0x12
    1d90:	8a 8a       	std	Y+18, r8	; 0x12
    1d92:	80 8a       	std	Z+16, r8	; 0x10
    1d94:	8a 80       	ldd	r8, Y+2	; 0x02
    1d96:	80 76       	andi	r24, 0x60	; 96
    1d98:	6c 6c       	ori	r22, 0xCC	; 204
    1d9a:	6c 62       	ori	r22, 0x2C	; 44
    1d9c:	62 62       	ori	r22, 0x22	; 34
    1d9e:	62 62       	ori	r22, 0x22	; 34
    1da0:	6c 76       	andi	r22, 0x6C	; 108
    1da2:	76 76       	andi	r23, 0x66	; 102
    1da4:	76 80       	ldd	r7, Z+6	; 0x06
    1da6:	80 80       	ld	r8, Z
    1da8:	80 76       	andi	r24, 0x60	; 96
    1daa:	76 76       	andi	r23, 0x66	; 102
    1dac:	76 76       	andi	r23, 0x66	; 102
    1dae:	76 80       	ldd	r7, Z+6	; 0x06
    1db0:	76 80       	ldd	r7, Z+6	; 0x06
    1db2:	8a 8a       	std	Y+18, r8	; 0x12
    1db4:	8a 8a       	std	Y+18, r8	; 0x12
    1db6:	8a 8a       	std	Y+18, r8	; 0x12
    1db8:	8a 8a       	std	Y+18, r8	; 0x12
    1dba:	8a 8a       	std	Y+18, r8	; 0x12
    1dbc:	8a 80       	ldd	r8, Y+2	; 0x02
    1dbe:	80 8a       	std	Z+16, r8	; 0x10
    1dc0:	80 6c       	ori	r24, 0xC0	; 192
    1dc2:	76 6c       	ori	r23, 0xC6	; 198
    1dc4:	62 62       	ori	r22, 0x22	; 34
    1dc6:	62 62       	ori	r22, 0x22	; 34
    1dc8:	62 62       	ori	r22, 0x22	; 34
    1dca:	6c 76       	andi	r22, 0x6C	; 108
    1dcc:	80 76       	andi	r24, 0x60	; 96
    1dce:	80 80       	ld	r8, Z
    1dd0:	80 80       	ld	r8, Z
    1dd2:	80 80       	ld	r8, Z
    1dd4:	76 76       	andi	r23, 0x66	; 102
    1dd6:	76 76       	andi	r23, 0x66	; 102
    1dd8:	76 80       	ldd	r7, Z+6	; 0x06
    1dda:	76 80       	ldd	r7, Z+6	; 0x06
    1ddc:	80 8a       	std	Z+16, r8	; 0x10
    1dde:	8a 8a       	std	Y+18, r8	; 0x12
    1de0:	8a 8a       	std	Y+18, r8	; 0x12
    1de2:	8a 8a       	std	Y+18, r8	; 0x12
    1de4:	8a 8a       	std	Y+18, r8	; 0x12
    1de6:	8a 80       	ldd	r8, Y+2	; 0x02
    1de8:	80 8a       	std	Z+16, r8	; 0x10
    1dea:	80 76       	andi	r24, 0x60	; 96
    1dec:	76 6c       	ori	r23, 0xC6	; 198
    1dee:	62 62       	ori	r22, 0x22	; 34
    1df0:	62 62       	ori	r22, 0x22	; 34
    1df2:	58 58       	subi	r21, 0x88	; 136
    1df4:	62 76       	andi	r22, 0x62	; 98
    1df6:	76 76       	andi	r23, 0x66	; 102
    1df8:	76 80       	ldd	r7, Z+6	; 0x06
    1dfa:	80 80       	ld	r8, Z
    1dfc:	80 80       	ld	r8, Z
    1dfe:	76 76       	andi	r23, 0x66	; 102
    1e00:	76 76       	andi	r23, 0x66	; 102
    1e02:	76 80       	ldd	r7, Z+6	; 0x06
    1e04:	76 80       	ldd	r7, Z+6	; 0x06
    1e06:	80 8a       	std	Z+16, r8	; 0x10
    1e08:	8a 8a       	std	Y+18, r8	; 0x12
    1e0a:	8a 8a       	std	Y+18, r8	; 0x12
    1e0c:	8a 8a       	std	Y+18, r8	; 0x12
    1e0e:	8a 8a       	std	Y+18, r8	; 0x12
    1e10:	8a 80       	ldd	r8, Y+2	; 0x02
    1e12:	8a 8a       	std	Y+18, r8	; 0x12
    1e14:	80 76       	andi	r24, 0x60	; 96
    1e16:	76 6c       	ori	r23, 0xC6	; 198
    1e18:	62 62       	ori	r22, 0x22	; 34
    1e1a:	62 62       	ori	r22, 0x22	; 34
    1e1c:	62 58       	subi	r22, 0x82	; 130
    1e1e:	62 76       	andi	r22, 0x62	; 98
    1e20:	76 76       	andi	r23, 0x66	; 102
    1e22:	76 80       	ldd	r7, Z+6	; 0x06
    1e24:	80 80       	ld	r8, Z
    1e26:	80 80       	ld	r8, Z
    1e28:	76 76       	andi	r23, 0x66	; 102
    1e2a:	76 76       	andi	r23, 0x66	; 102
    1e2c:	76 80       	ldd	r7, Z+6	; 0x06
    1e2e:	76 76       	andi	r23, 0x66	; 102
    1e30:	80 8a       	std	Z+16, r8	; 0x10
    1e32:	8a 8a       	std	Y+18, r8	; 0x12
    1e34:	8a 8a       	std	Y+18, r8	; 0x12
    1e36:	8a 8a       	std	Y+18, r8	; 0x12
    1e38:	8a 8a       	std	Y+18, r8	; 0x12
    1e3a:	8a 80       	ldd	r8, Y+2	; 0x02
    1e3c:	8a 8a       	std	Y+18, r8	; 0x12
    1e3e:	80 76       	andi	r24, 0x60	; 96
    1e40:	76 6c       	ori	r23, 0xC6	; 198
    1e42:	6c 62       	ori	r22, 0x2C	; 44
    1e44:	62 62       	ori	r22, 0x22	; 34
    1e46:	62 58       	subi	r22, 0x82	; 130
    1e48:	62 76       	andi	r22, 0x62	; 98
    1e4a:	76 76       	andi	r23, 0x66	; 102
    1e4c:	76 80       	ldd	r7, Z+6	; 0x06
    1e4e:	80 80       	ld	r8, Z
    1e50:	80 80       	ld	r8, Z
    1e52:	76 76       	andi	r23, 0x66	; 102
    1e54:	76 76       	andi	r23, 0x66	; 102
    1e56:	76 76       	andi	r23, 0x66	; 102
    1e58:	76 76       	andi	r23, 0x66	; 102
    1e5a:	80 8a       	std	Z+16, r8	; 0x10
    1e5c:	8a 8a       	std	Y+18, r8	; 0x12
    1e5e:	8a 8a       	std	Y+18, r8	; 0x12
    1e60:	8a 8a       	std	Y+18, r8	; 0x12
    1e62:	8a 8a       	std	Y+18, r8	; 0x12
    1e64:	8a 80       	ldd	r8, Y+2	; 0x02
    1e66:	8a 8a       	std	Y+18, r8	; 0x12
    1e68:	80 76       	andi	r24, 0x60	; 96
    1e6a:	76 6c       	ori	r23, 0xC6	; 198
    1e6c:	6c 62       	ori	r22, 0x2C	; 44
    1e6e:	62 62       	ori	r22, 0x22	; 34
    1e70:	62 58       	subi	r22, 0x82	; 130
    1e72:	62 6c       	ori	r22, 0xC2	; 194
    1e74:	76 76       	andi	r23, 0x66	; 102
    1e76:	76 80       	ldd	r7, Z+6	; 0x06
    1e78:	80 80       	ld	r8, Z
    1e7a:	80 80       	ld	r8, Z
    1e7c:	76 76       	andi	r23, 0x66	; 102
    1e7e:	76 76       	andi	r23, 0x66	; 102
    1e80:	76 80       	ldd	r7, Z+6	; 0x06
    1e82:	76 76       	andi	r23, 0x66	; 102
    1e84:	80 8a       	std	Z+16, r8	; 0x10
    1e86:	8a 8a       	std	Y+18, r8	; 0x12
    1e88:	8a 8a       	std	Y+18, r8	; 0x12
    1e8a:	8a 8a       	std	Y+18, r8	; 0x12
    1e8c:	8a 8a       	std	Y+18, r8	; 0x12
    1e8e:	8a 80       	ldd	r8, Y+2	; 0x02
    1e90:	8a 8a       	std	Y+18, r8	; 0x12
    1e92:	80 80       	ld	r8, Z
    1e94:	76 6c       	ori	r23, 0xC6	; 198
    1e96:	6c 6c       	ori	r22, 0xCC	; 204
    1e98:	62 62       	ori	r22, 0x22	; 34
    1e9a:	62 58       	subi	r22, 0x82	; 130
    1e9c:	62 6c       	ori	r22, 0xC2	; 194
    1e9e:	76 76       	andi	r23, 0x66	; 102
    1ea0:	76 80       	ldd	r7, Z+6	; 0x06
    1ea2:	80 80       	ld	r8, Z
    1ea4:	80 80       	ld	r8, Z
    1ea6:	76 76       	andi	r23, 0x66	; 102
    1ea8:	76 76       	andi	r23, 0x66	; 102
    1eaa:	76 80       	ldd	r7, Z+6	; 0x06
    1eac:	76 76       	andi	r23, 0x66	; 102
    1eae:	80 8a       	std	Z+16, r8	; 0x10
    1eb0:	8a 8a       	std	Y+18, r8	; 0x12
    1eb2:	8a 8a       	std	Y+18, r8	; 0x12
    1eb4:	8a 8a       	std	Y+18, r8	; 0x12
    1eb6:	8a 8a       	std	Y+18, r8	; 0x12
    1eb8:	8a 80       	ldd	r8, Y+2	; 0x02
    1eba:	8a 8a       	std	Y+18, r8	; 0x12
    1ebc:	80 80       	ld	r8, Z
    1ebe:	76 6c       	ori	r23, 0xC6	; 198
    1ec0:	6c 6c       	ori	r22, 0xCC	; 204
    1ec2:	6c 6c       	ori	r22, 0xCC	; 204
    1ec4:	62 62       	ori	r22, 0x22	; 34
    1ec6:	62 6c       	ori	r22, 0xC2	; 194
    1ec8:	76 76       	andi	r23, 0x66	; 102
    1eca:	76 76       	andi	r23, 0x66	; 102
    1ecc:	80 80       	ld	r8, Z
    1ece:	80 80       	ld	r8, Z
    1ed0:	76 76       	andi	r23, 0x66	; 102
    1ed2:	76 76       	andi	r23, 0x66	; 102
    1ed4:	76 76       	andi	r23, 0x66	; 102
    1ed6:	80 80       	ld	r8, Z
    1ed8:	80 80       	ld	r8, Z
    1eda:	8a 8a       	std	Y+18, r8	; 0x12
    1edc:	8a 8a       	std	Y+18, r8	; 0x12
    1ede:	8a 8a       	std	Y+18, r8	; 0x12
    1ee0:	8a 8a       	std	Y+18, r8	; 0x12
    1ee2:	8a 8a       	std	Y+18, r8	; 0x12
    1ee4:	80 80       	ld	r8, Z
    1ee6:	8a 80       	ldd	r8, Y+2	; 0x02
    1ee8:	76 76       	andi	r23, 0x66	; 102
    1eea:	6c 62       	ori	r22, 0x2C	; 44
    1eec:	62 62       	ori	r22, 0x22	; 34
    1eee:	62 62       	ori	r22, 0x22	; 34
    1ef0:	62 6c       	ori	r22, 0xC2	; 194
    1ef2:	76 80       	ldd	r7, Z+6	; 0x06
    1ef4:	76 80       	ldd	r7, Z+6	; 0x06
    1ef6:	80 80       	ld	r8, Z
    1ef8:	80 80       	ld	r8, Z
    1efa:	80 76       	andi	r24, 0x60	; 96
    1efc:	76 76       	andi	r23, 0x66	; 102
    1efe:	76 76       	andi	r23, 0x66	; 102
    1f00:	80 76       	andi	r24, 0x60	; 96
    1f02:	80 80       	ld	r8, Z
    1f04:	8a 8a       	std	Y+18, r8	; 0x12
    1f06:	8a 8a       	std	Y+18, r8	; 0x12
    1f08:	8a 8a       	std	Y+18, r8	; 0x12
    1f0a:	8a 8a       	std	Y+18, r8	; 0x12
    1f0c:	8a 8a       	std	Y+18, r8	; 0x12
    1f0e:	80 80       	ld	r8, Z
    1f10:	8a 80       	ldd	r8, Y+2	; 0x02
    1f12:	76 76       	andi	r23, 0x66	; 102
    1f14:	6c 62       	ori	r22, 0x2C	; 44
    1f16:	62 62       	ori	r22, 0x22	; 34
    1f18:	62 62       	ori	r22, 0x22	; 34
    1f1a:	62 62       	ori	r22, 0x22	; 34
    1f1c:	76 76       	andi	r23, 0x66	; 102
    1f1e:	76 76       	andi	r23, 0x66	; 102
    1f20:	80 80       	ld	r8, Z
    1f22:	80 80       	ld	r8, Z
    1f24:	80 76       	andi	r24, 0x60	; 96
    1f26:	76 76       	andi	r23, 0x66	; 102
    1f28:	76 76       	andi	r23, 0x66	; 102
    1f2a:	80 76       	andi	r24, 0x60	; 96
    1f2c:	76 80       	ldd	r7, Z+6	; 0x06
    1f2e:	8a 8a       	std	Y+18, r8	; 0x12
    1f30:	8a 8a       	std	Y+18, r8	; 0x12
    1f32:	8a 8a       	std	Y+18, r8	; 0x12
    1f34:	8a 8a       	std	Y+18, r8	; 0x12
    1f36:	8a 8a       	std	Y+18, r8	; 0x12
    1f38:	80 80       	ld	r8, Z
    1f3a:	8a 80       	ldd	r8, Y+2	; 0x02
    1f3c:	76 76       	andi	r23, 0x66	; 102
    1f3e:	6c 62       	ori	r22, 0x2C	; 44
    1f40:	62 62       	ori	r22, 0x22	; 34
    1f42:	62 62       	ori	r22, 0x22	; 34
    1f44:	62 62       	ori	r22, 0x22	; 34
    1f46:	76 76       	andi	r23, 0x66	; 102
    1f48:	76 76       	andi	r23, 0x66	; 102
    1f4a:	80 80       	ld	r8, Z
    1f4c:	80 80       	ld	r8, Z
    1f4e:	80 76       	andi	r24, 0x60	; 96
    1f50:	76 76       	andi	r23, 0x66	; 102
    1f52:	76 76       	andi	r23, 0x66	; 102
    1f54:	80 76       	andi	r24, 0x60	; 96
    1f56:	76 80       	ldd	r7, Z+6	; 0x06
    1f58:	8a 8a       	std	Y+18, r8	; 0x12
    1f5a:	8a 8a       	std	Y+18, r8	; 0x12
    1f5c:	8a 8a       	std	Y+18, r8	; 0x12
    1f5e:	8a 8a       	std	Y+18, r8	; 0x12
    1f60:	8a 8a       	std	Y+18, r8	; 0x12
    1f62:	80 8a       	std	Z+16, r8	; 0x10
    1f64:	8a 80       	ldd	r8, Y+2	; 0x02
    1f66:	76 76       	andi	r23, 0x66	; 102
    1f68:	6c 6c       	ori	r22, 0xCC	; 204
    1f6a:	6c 62       	ori	r22, 0x2C	; 44
    1f6c:	62 62       	ori	r22, 0x22	; 34
    1f6e:	58 62       	ori	r21, 0x28	; 40
    1f70:	76 76       	andi	r23, 0x66	; 102
    1f72:	76 76       	andi	r23, 0x66	; 102
    1f74:	80 80       	ld	r8, Z
    1f76:	80 80       	ld	r8, Z
    1f78:	80 76       	andi	r24, 0x60	; 96
    1f7a:	76 76       	andi	r23, 0x66	; 102
    1f7c:	76 76       	andi	r23, 0x66	; 102
    1f7e:	76 76       	andi	r23, 0x66	; 102
    1f80:	76 80       	ldd	r7, Z+6	; 0x06
    1f82:	8a 8a       	std	Y+18, r8	; 0x12
    1f84:	8a 8a       	std	Y+18, r8	; 0x12
    1f86:	8a 8a       	std	Y+18, r8	; 0x12
    1f88:	8a 8a       	std	Y+18, r8	; 0x12
    1f8a:	8a 8a       	std	Y+18, r8	; 0x12
    1f8c:	80 8a       	std	Z+16, r8	; 0x10
    1f8e:	8a 80       	ldd	r8, Y+2	; 0x02
    1f90:	76 76       	andi	r23, 0x66	; 102
    1f92:	6c 6c       	ori	r22, 0xCC	; 204
    1f94:	6c 62       	ori	r22, 0x2C	; 44
    1f96:	62 62       	ori	r22, 0x22	; 34
    1f98:	58 62       	ori	r21, 0x28	; 40
    1f9a:	6c 76       	andi	r22, 0x6C	; 108
    1f9c:	76 76       	andi	r23, 0x66	; 102
    1f9e:	76 80       	ldd	r7, Z+6	; 0x06
    1fa0:	80 80       	ld	r8, Z
    1fa2:	80 76       	andi	r24, 0x60	; 96
    1fa4:	76 76       	andi	r23, 0x66	; 102
    1fa6:	76 76       	andi	r23, 0x66	; 102
    1fa8:	80 76       	andi	r24, 0x60	; 96
    1faa:	76 80       	ldd	r7, Z+6	; 0x06
    1fac:	8a 8a       	std	Y+18, r8	; 0x12
    1fae:	8a 8a       	std	Y+18, r8	; 0x12
    1fb0:	8a 8a       	std	Y+18, r8	; 0x12
    1fb2:	8a 8a       	std	Y+18, r8	; 0x12
    1fb4:	8a 8a       	std	Y+18, r8	; 0x12
    1fb6:	80 8a       	std	Z+16, r8	; 0x10
    1fb8:	8a 80       	ldd	r8, Y+2	; 0x02
    1fba:	80 76       	andi	r24, 0x60	; 96
    1fbc:	6c 6c       	ori	r22, 0xCC	; 204
    1fbe:	6c 6c       	ori	r22, 0xCC	; 204
    1fc0:	6c 62       	ori	r22, 0x2C	; 44
    1fc2:	62 62       	ori	r22, 0x22	; 34
    1fc4:	6c 76       	andi	r22, 0x6C	; 108
    1fc6:	76 76       	andi	r23, 0x66	; 102
    1fc8:	80 80       	ld	r8, Z
    1fca:	80 80       	ld	r8, Z
    1fcc:	80 76       	andi	r24, 0x60	; 96
    1fce:	76 76       	andi	r23, 0x66	; 102
    1fd0:	76 76       	andi	r23, 0x66	; 102
    1fd2:	80 76       	andi	r24, 0x60	; 96
    1fd4:	76 80       	ldd	r7, Z+6	; 0x06
    1fd6:	8a 8a       	std	Y+18, r8	; 0x12
    1fd8:	8a 8a       	std	Y+18, r8	; 0x12
    1fda:	8a 8a       	std	Y+18, r8	; 0x12
    1fdc:	8a 8a       	std	Y+18, r8	; 0x12
    1fde:	8a 8a       	std	Y+18, r8	; 0x12
    1fe0:	80 8a       	std	Z+16, r8	; 0x10
    1fe2:	8a 80       	ldd	r8, Y+2	; 0x02
    1fe4:	80 76       	andi	r24, 0x60	; 96
    1fe6:	76 6c       	ori	r23, 0xC6	; 198
    1fe8:	6c 6c       	ori	r22, 0xCC	; 204
    1fea:	6c 62       	ori	r22, 0x2C	; 44
    1fec:	62 62       	ori	r22, 0x22	; 34
    1fee:	6c 76       	andi	r22, 0x6C	; 108
    1ff0:	76 76       	andi	r23, 0x66	; 102
    1ff2:	76 80       	ldd	r7, Z+6	; 0x06
    1ff4:	80 80       	ld	r8, Z
    1ff6:	80 76       	andi	r24, 0x60	; 96
    1ff8:	76 76       	andi	r23, 0x66	; 102
    1ffa:	76 76       	andi	r23, 0x66	; 102
    1ffc:	76 80       	ldd	r7, Z+6	; 0x06
    1ffe:	80 80       	ld	r8, Z
    2000:	80 8a       	std	Z+16, r8	; 0x10
    2002:	8a 8a       	std	Y+18, r8	; 0x12
    2004:	8a 8a       	std	Y+18, r8	; 0x12
    2006:	8a 8a       	std	Y+18, r8	; 0x12
    2008:	8a 8a       	std	Y+18, r8	; 0x12
    200a:	8a 80       	ldd	r8, Y+2	; 0x02
    200c:	80 8a       	std	Z+16, r8	; 0x10
    200e:	80 76       	andi	r24, 0x60	; 96
    2010:	76 6c       	ori	r23, 0xC6	; 198
    2012:	62 62       	ori	r22, 0x22	; 34
    2014:	62 62       	ori	r22, 0x22	; 34
    2016:	62 62       	ori	r22, 0x22	; 34
    2018:	6c 76       	andi	r22, 0x6C	; 108
    201a:	80 76       	andi	r24, 0x60	; 96
    201c:	80 80       	ld	r8, Z
    201e:	80 80       	ld	r8, Z
    2020:	80 80       	ld	r8, Z
    2022:	76 76       	andi	r23, 0x66	; 102
    2024:	76 76       	andi	r23, 0x66	; 102
    2026:	76 80       	ldd	r7, Z+6	; 0x06
    2028:	76 80       	ldd	r7, Z+6	; 0x06
    202a:	80 8a       	std	Z+16, r8	; 0x10
    202c:	8a 8a       	std	Y+18, r8	; 0x12
    202e:	8a 8a       	std	Y+18, r8	; 0x12
    2030:	8a 8a       	std	Y+18, r8	; 0x12
    2032:	8a 8a       	std	Y+18, r8	; 0x12
    2034:	8a 80       	ldd	r8, Y+2	; 0x02
    2036:	80 8a       	std	Z+16, r8	; 0x10
    2038:	80 76       	andi	r24, 0x60	; 96
    203a:	76 6c       	ori	r23, 0xC6	; 198
    203c:	62 62       	ori	r22, 0x22	; 34
    203e:	62 62       	ori	r22, 0x22	; 34
    2040:	62 62       	ori	r22, 0x22	; 34
    2042:	62 76       	andi	r22, 0x62	; 98
    2044:	76 76       	andi	r23, 0x66	; 102
    2046:	76 76       	andi	r23, 0x66	; 102
    2048:	80 80       	ld	r8, Z
    204a:	80 80       	ld	r8, Z
    204c:	76 76       	andi	r23, 0x66	; 102
    204e:	76 76       	andi	r23, 0x66	; 102
    2050:	76 80       	ldd	r7, Z+6	; 0x06
    2052:	76 76       	andi	r23, 0x66	; 102
    2054:	80 8a       	std	Z+16, r8	; 0x10
    2056:	8a 8a       	std	Y+18, r8	; 0x12
    2058:	8a 8a       	std	Y+18, r8	; 0x12
    205a:	8a 8a       	std	Y+18, r8	; 0x12
    205c:	8a 8a       	std	Y+18, r8	; 0x12
    205e:	8a 80       	ldd	r8, Y+2	; 0x02
    2060:	80 8a       	std	Z+16, r8	; 0x10
    2062:	80 76       	andi	r24, 0x60	; 96
    2064:	76 6c       	ori	r23, 0xC6	; 198
    2066:	6c 62       	ori	r22, 0x2C	; 44
    2068:	62 62       	ori	r22, 0x22	; 34
    206a:	62 62       	ori	r22, 0x22	; 34
    206c:	62 76       	andi	r22, 0x62	; 98
    206e:	76 76       	andi	r23, 0x66	; 102
    2070:	76 80       	ldd	r7, Z+6	; 0x06
    2072:	80 80       	ld	r8, Z
    2074:	80 80       	ld	r8, Z
    2076:	76 76       	andi	r23, 0x66	; 102
    2078:	76 76       	andi	r23, 0x66	; 102
    207a:	76 80       	ldd	r7, Z+6	; 0x06
    207c:	76 76       	andi	r23, 0x66	; 102
    207e:	80 8a       	std	Z+16, r8	; 0x10
    2080:	8a 8a       	std	Y+18, r8	; 0x12
    2082:	8a 8a       	std	Y+18, r8	; 0x12
    2084:	8a 8a       	std	Y+18, r8	; 0x12
    2086:	8a 8a       	std	Y+18, r8	; 0x12
    2088:	8a 80       	ldd	r8, Y+2	; 0x02
    208a:	80 8a       	std	Z+16, r8	; 0x10
    208c:	80 76       	andi	r24, 0x60	; 96
    208e:	76 6c       	ori	r23, 0xC6	; 198
    2090:	6c 6c       	ori	r22, 0xCC	; 204
    2092:	6c 62       	ori	r22, 0x2C	; 44
    2094:	62 62       	ori	r22, 0x22	; 34
    2096:	62 76       	andi	r22, 0x62	; 98
    2098:	76 76       	andi	r23, 0x66	; 102
    209a:	76 80       	ldd	r7, Z+6	; 0x06
    209c:	80 80       	ld	r8, Z
    209e:	80 80       	ld	r8, Z
    20a0:	76 76       	andi	r23, 0x66	; 102
    20a2:	76 76       	andi	r23, 0x66	; 102
    20a4:	76 80       	ldd	r7, Z+6	; 0x06
    20a6:	76 76       	andi	r23, 0x66	; 102
    20a8:	80 8a       	std	Z+16, r8	; 0x10
    20aa:	8a 8a       	std	Y+18, r8	; 0x12
    20ac:	8a 8a       	std	Y+18, r8	; 0x12
    20ae:	8a 8a       	std	Y+18, r8	; 0x12
    20b0:	8a 8a       	std	Y+18, r8	; 0x12
    20b2:	8a 80       	ldd	r8, Y+2	; 0x02
    20b4:	80 8a       	std	Z+16, r8	; 0x10
    20b6:	80 76       	andi	r24, 0x60	; 96
    20b8:	76 6c       	ori	r23, 0xC6	; 198
    20ba:	6c 6c       	ori	r22, 0xCC	; 204
    20bc:	6c 62       	ori	r22, 0x2C	; 44
    20be:	62 62       	ori	r22, 0x22	; 34
    20c0:	62 6c       	ori	r22, 0xC2	; 194
    20c2:	76 76       	andi	r23, 0x66	; 102
    20c4:	76 76       	andi	r23, 0x66	; 102
    20c6:	80 80       	ld	r8, Z
    20c8:	80 80       	ld	r8, Z
    20ca:	76 76       	andi	r23, 0x66	; 102
    20cc:	76 76       	andi	r23, 0x66	; 102
    20ce:	76 80       	ldd	r7, Z+6	; 0x06
    20d0:	76 76       	andi	r23, 0x66	; 102
    20d2:	80 8a       	std	Z+16, r8	; 0x10
    20d4:	8a 8a       	std	Y+18, r8	; 0x12
    20d6:	8a 8a       	std	Y+18, r8	; 0x12
    20d8:	8a 8a       	std	Y+18, r8	; 0x12
    20da:	8a 8a       	std	Y+18, r8	; 0x12
    20dc:	8a 80       	ldd	r8, Y+2	; 0x02
    20de:	8a 8a       	std	Y+18, r8	; 0x12
    20e0:	80 80       	ld	r8, Z
    20e2:	76 76       	andi	r23, 0x66	; 102
    20e4:	6c 6c       	ori	r22, 0xCC	; 204
    20e6:	6c 6c       	ori	r22, 0xCC	; 204
    20e8:	62 62       	ori	r22, 0x22	; 34
    20ea:	62 6c       	ori	r22, 0xC2	; 194
    20ec:	76 76       	andi	r23, 0x66	; 102
    20ee:	76 80       	ldd	r7, Z+6	; 0x06
    20f0:	80 80       	ld	r8, Z
    20f2:	80 80       	ld	r8, Z
    20f4:	76 76       	andi	r23, 0x66	; 102
    20f6:	76 76       	andi	r23, 0x66	; 102
    20f8:	76 80       	ldd	r7, Z+6	; 0x06
    20fa:	76 76       	andi	r23, 0x66	; 102
    20fc:	80 8a       	std	Z+16, r8	; 0x10
    20fe:	8a 8a       	std	Y+18, r8	; 0x12
    2100:	8a 8a       	std	Y+18, r8	; 0x12
    2102:	8a 8a       	std	Y+18, r8	; 0x12
    2104:	8a 8a       	std	Y+18, r8	; 0x12
    2106:	8a 80       	ldd	r8, Y+2	; 0x02
    2108:	8a 8a       	std	Y+18, r8	; 0x12
    210a:	80 80       	ld	r8, Z
    210c:	76 76       	andi	r23, 0x66	; 102
    210e:	6c 6c       	ori	r22, 0xCC	; 204
    2110:	6c 6c       	ori	r22, 0xCC	; 204
    2112:	62 62       	ori	r22, 0x22	; 34
    2114:	62 6c       	ori	r22, 0xC2	; 194
    2116:	76 76       	andi	r23, 0x66	; 102
    2118:	76 76       	andi	r23, 0x66	; 102
    211a:	80 80       	ld	r8, Z
    211c:	80 80       	ld	r8, Z
    211e:	80 76       	andi	r24, 0x60	; 96
    2120:	76 76       	andi	r23, 0x66	; 102
    2122:	76 76       	andi	r23, 0x66	; 102
    2124:	80 80       	ld	r8, Z
    2126:	76 80       	ldd	r7, Z+6	; 0x06
    2128:	8a 8a       	std	Y+18, r8	; 0x12
    212a:	8a 8a       	std	Y+18, r8	; 0x12
    212c:	8a 80       	ldd	r8, Y+2	; 0x02
    212e:	8a 8a       	std	Y+18, r8	; 0x12
    2130:	8a 8a       	std	Y+18, r8	; 0x12
    2132:	80 80       	ld	r8, Z
    2134:	8a 80       	ldd	r8, Y+2	; 0x02
    2136:	76 76       	andi	r23, 0x66	; 102
    2138:	6c 62       	ori	r22, 0x2C	; 44
    213a:	62 62       	ori	r22, 0x22	; 34
    213c:	62 62       	ori	r22, 0x22	; 34
    213e:	62 6c       	ori	r22, 0xC2	; 194
    2140:	76 80       	ldd	r7, Z+6	; 0x06
    2142:	76 80       	ldd	r7, Z+6	; 0x06
    2144:	80 80       	ld	r8, Z
    2146:	80 80       	ld	r8, Z
    2148:	80 76       	andi	r24, 0x60	; 96
    214a:	76 76       	andi	r23, 0x66	; 102
    214c:	76 76       	andi	r23, 0x66	; 102
    214e:	80 76       	andi	r24, 0x60	; 96
    2150:	80 80       	ld	r8, Z
    2152:	8a 8a       	std	Y+18, r8	; 0x12
    2154:	8a 8a       	std	Y+18, r8	; 0x12
    2156:	8a 8a       	std	Y+18, r8	; 0x12
    2158:	8a 8a       	std	Y+18, r8	; 0x12
    215a:	8a 8a       	std	Y+18, r8	; 0x12
    215c:	80 80       	ld	r8, Z
    215e:	8a 80       	ldd	r8, Y+2	; 0x02
    2160:	76 76       	andi	r23, 0x66	; 102
    2162:	6c 62       	ori	r22, 0x2C	; 44
    2164:	62 62       	ori	r22, 0x22	; 34
    2166:	62 62       	ori	r22, 0x22	; 34
    2168:	62 62       	ori	r22, 0x22	; 34
    216a:	76 76       	andi	r23, 0x66	; 102
    216c:	76 76       	andi	r23, 0x66	; 102
    216e:	76 80       	ldd	r7, Z+6	; 0x06
    2170:	80 80       	ld	r8, Z
    2172:	80 76       	andi	r24, 0x60	; 96
    2174:	76 76       	andi	r23, 0x66	; 102
    2176:	76 76       	andi	r23, 0x66	; 102
    2178:	80 76       	andi	r24, 0x60	; 96
    217a:	76 80       	ldd	r7, Z+6	; 0x06
    217c:	8a 8a       	std	Y+18, r8	; 0x12
    217e:	8a 8a       	std	Y+18, r8	; 0x12
    2180:	8a 8a       	std	Y+18, r8	; 0x12
    2182:	8a 8a       	std	Y+18, r8	; 0x12
    2184:	8a 8a       	std	Y+18, r8	; 0x12
    2186:	80 80       	ld	r8, Z
    2188:	8a 80       	ldd	r8, Y+2	; 0x02
    218a:	76 76       	andi	r23, 0x66	; 102
    218c:	6c 6c       	ori	r22, 0xCC	; 204
    218e:	62 62       	ori	r22, 0x22	; 34
    2190:	62 62       	ori	r22, 0x22	; 34
    2192:	62 62       	ori	r22, 0x22	; 34
    2194:	76 76       	andi	r23, 0x66	; 102
    2196:	76 76       	andi	r23, 0x66	; 102
    2198:	80 80       	ld	r8, Z
    219a:	80 80       	ld	r8, Z
    219c:	80 76       	andi	r24, 0x60	; 96
    219e:	76 76       	andi	r23, 0x66	; 102
    21a0:	76 76       	andi	r23, 0x66	; 102
    21a2:	80 76       	andi	r24, 0x60	; 96
    21a4:	76 80       	ldd	r7, Z+6	; 0x06
    21a6:	8a 8a       	std	Y+18, r8	; 0x12
    21a8:	8a 8a       	std	Y+18, r8	; 0x12
    21aa:	8a 8a       	std	Y+18, r8	; 0x12
    21ac:	8a 8a       	std	Y+18, r8	; 0x12
    21ae:	8a 8a       	std	Y+18, r8	; 0x12
    21b0:	80 80       	ld	r8, Z
    21b2:	8a 80       	ldd	r8, Y+2	; 0x02
    21b4:	76 76       	andi	r23, 0x66	; 102
    21b6:	76 6c       	ori	r23, 0xC6	; 198
    21b8:	6c 6c       	ori	r22, 0xCC	; 204
    21ba:	62 62       	ori	r22, 0x22	; 34
    21bc:	62 62       	ori	r22, 0x22	; 34
    21be:	76 76       	andi	r23, 0x66	; 102
    21c0:	76 76       	andi	r23, 0x66	; 102
    21c2:	80 80       	ld	r8, Z
    21c4:	80 80       	ld	r8, Z
    21c6:	80 76       	andi	r24, 0x60	; 96
    21c8:	76 76       	andi	r23, 0x66	; 102
    21ca:	76 76       	andi	r23, 0x66	; 102
    21cc:	80 76       	andi	r24, 0x60	; 96
    21ce:	76 80       	ldd	r7, Z+6	; 0x06
    21d0:	8a 8a       	std	Y+18, r8	; 0x12
    21d2:	8a 8a       	std	Y+18, r8	; 0x12
    21d4:	8a 8a       	std	Y+18, r8	; 0x12
    21d6:	8a 8a       	std	Y+18, r8	; 0x12
    21d8:	8a 8a       	std	Y+18, r8	; 0x12
    21da:	80 80       	ld	r8, Z
    21dc:	8a 80       	ldd	r8, Y+2	; 0x02
    21de:	76 76       	andi	r23, 0x66	; 102
    21e0:	76 6c       	ori	r23, 0xC6	; 198
    21e2:	6c 6c       	ori	r22, 0xCC	; 204
    21e4:	62 62       	ori	r22, 0x22	; 34
    21e6:	62 62       	ori	r22, 0x22	; 34
    21e8:	6c 76       	andi	r22, 0x6C	; 108
    21ea:	76 76       	andi	r23, 0x66	; 102
    21ec:	76 80       	ldd	r7, Z+6	; 0x06
    21ee:	80 80       	ld	r8, Z
    21f0:	80 76       	andi	r24, 0x60	; 96
    21f2:	76 76       	andi	r23, 0x66	; 102
    21f4:	76 76       	andi	r23, 0x66	; 102
    21f6:	80 76       	andi	r24, 0x60	; 96
    21f8:	76 80       	ldd	r7, Z+6	; 0x06
    21fa:	8a 8a       	std	Y+18, r8	; 0x12
    21fc:	8a 8a       	std	Y+18, r8	; 0x12
    21fe:	8a 8a       	std	Y+18, r8	; 0x12
    2200:	8a 8a       	std	Y+18, r8	; 0x12
    2202:	8a 8a       	std	Y+18, r8	; 0x12
    2204:	80 80       	ld	r8, Z
    2206:	8a 80       	ldd	r8, Y+2	; 0x02
    2208:	80 76       	andi	r24, 0x60	; 96
    220a:	76 6c       	ori	r23, 0xC6	; 198
    220c:	6c 6c       	ori	r22, 0xCC	; 204
    220e:	6c 62       	ori	r22, 0x2C	; 44
    2210:	62 62       	ori	r22, 0x22	; 34
    2212:	6c 76       	andi	r22, 0x6C	; 108
    2214:	76 76       	andi	r23, 0x66	; 102
    2216:	76 80       	ldd	r7, Z+6	; 0x06
    2218:	80 80       	ld	r8, Z
    221a:	80 80       	ld	r8, Z
    221c:	76 76       	andi	r23, 0x66	; 102
    221e:	76 76       	andi	r23, 0x66	; 102
    2220:	80 76       	andi	r24, 0x60	; 96
    2222:	76 80       	ldd	r7, Z+6	; 0x06
    2224:	8a 8a       	std	Y+18, r8	; 0x12
    2226:	8a 8a       	std	Y+18, r8	; 0x12
    2228:	8a 8a       	std	Y+18, r8	; 0x12
    222a:	8a 8a       	std	Y+18, r8	; 0x12
    222c:	8a 8a       	std	Y+18, r8	; 0x12
    222e:	80 8a       	std	Z+16, r8	; 0x10
    2230:	8a 80       	ldd	r8, Y+2	; 0x02
    2232:	80 76       	andi	r24, 0x60	; 96
    2234:	76 6c       	ori	r23, 0xC6	; 198
    2236:	6c 6c       	ori	r22, 0xCC	; 204
    2238:	6c 62       	ori	r22, 0x2C	; 44
    223a:	62 62       	ori	r22, 0x22	; 34
    223c:	6c 76       	andi	r22, 0x6C	; 108
    223e:	76 76       	andi	r23, 0x66	; 102
    2240:	76 80       	ldd	r7, Z+6	; 0x06
    2242:	80 80       	ld	r8, Z
    2244:	80 80       	ld	r8, Z
    2246:	76 76       	andi	r23, 0x66	; 102
    2248:	76 76       	andi	r23, 0x66	; 102
    224a:	76 80       	ldd	r7, Z+6	; 0x06
    224c:	80 76       	andi	r24, 0x60	; 96
    224e:	80 8a       	std	Z+16, r8	; 0x10
    2250:	8a 8a       	std	Y+18, r8	; 0x12
    2252:	8a 8a       	std	Y+18, r8	; 0x12
    2254:	80 8a       	std	Z+16, r8	; 0x10
    2256:	8a 8a       	std	Y+18, r8	; 0x12
    2258:	8a 80       	ldd	r8, Y+2	; 0x02
    225a:	80 8a       	std	Z+16, r8	; 0x10
    225c:	80 76       	andi	r24, 0x60	; 96
    225e:	76 6c       	ori	r23, 0xC6	; 198
    2260:	62 62       	ori	r22, 0x22	; 34
    2262:	6c 62       	ori	r22, 0x2C	; 44
    2264:	62 62       	ori	r22, 0x22	; 34
    2266:	6c 76       	andi	r22, 0x6C	; 108
    2268:	80 76       	andi	r24, 0x60	; 96
    226a:	80 80       	ld	r8, Z
    226c:	80 80       	ld	r8, Z
    226e:	80 80       	ld	r8, Z
    2270:	76 76       	andi	r23, 0x66	; 102
    2272:	76 76       	andi	r23, 0x66	; 102
    2274:	76 80       	ldd	r7, Z+6	; 0x06
    2276:	80 80       	ld	r8, Z
    2278:	80 8a       	std	Z+16, r8	; 0x10
    227a:	8a 8a       	std	Y+18, r8	; 0x12
    227c:	8a 8a       	std	Y+18, r8	; 0x12
    227e:	80 8a       	std	Z+16, r8	; 0x10
    2280:	8a 8a       	std	Y+18, r8	; 0x12
    2282:	8a 80       	ldd	r8, Y+2	; 0x02
    2284:	80 8a       	std	Z+16, r8	; 0x10
    2286:	80 76       	andi	r24, 0x60	; 96
    2288:	76 6c       	ori	r23, 0xC6	; 198
    228a:	6c 62       	ori	r22, 0x2C	; 44
    228c:	62 62       	ori	r22, 0x22	; 34
    228e:	62 62       	ori	r22, 0x22	; 34
    2290:	62 76       	andi	r22, 0x62	; 98
    2292:	76 76       	andi	r23, 0x66	; 102
    2294:	76 76       	andi	r23, 0x66	; 102
    2296:	80 80       	ld	r8, Z
    2298:	80 80       	ld	r8, Z
    229a:	76 76       	andi	r23, 0x66	; 102
    229c:	76 76       	andi	r23, 0x66	; 102
    229e:	76 80       	ldd	r7, Z+6	; 0x06
    22a0:	76 76       	andi	r23, 0x66	; 102
    22a2:	80 8a       	std	Z+16, r8	; 0x10
    22a4:	8a 8a       	std	Y+18, r8	; 0x12
    22a6:	8a 8a       	std	Y+18, r8	; 0x12
    22a8:	8a 8a       	std	Y+18, r8	; 0x12
    22aa:	8a 8a       	std	Y+18, r8	; 0x12
    22ac:	8a 80       	ldd	r8, Y+2	; 0x02
    22ae:	80 8a       	std	Z+16, r8	; 0x10
    22b0:	80 76       	andi	r24, 0x60	; 96
    22b2:	76 6c       	ori	r23, 0xC6	; 198
    22b4:	6c 6c       	ori	r22, 0xCC	; 204
    22b6:	6c 62       	ori	r22, 0x2C	; 44
    22b8:	62 62       	ori	r22, 0x22	; 34
    22ba:	62 76       	andi	r22, 0x62	; 98
    22bc:	76 76       	andi	r23, 0x66	; 102
    22be:	76 80       	ldd	r7, Z+6	; 0x06
    22c0:	80 80       	ld	r8, Z
    22c2:	80 80       	ld	r8, Z
    22c4:	76 76       	andi	r23, 0x66	; 102
    22c6:	76 76       	andi	r23, 0x66	; 102
    22c8:	76 80       	ldd	r7, Z+6	; 0x06
    22ca:	76 76       	andi	r23, 0x66	; 102
    22cc:	80 8a       	std	Z+16, r8	; 0x10
    22ce:	8a 8a       	std	Y+18, r8	; 0x12
    22d0:	8a 8a       	std	Y+18, r8	; 0x12
    22d2:	8a 8a       	std	Y+18, r8	; 0x12
    22d4:	8a 8a       	std	Y+18, r8	; 0x12
    22d6:	8a 80       	ldd	r8, Y+2	; 0x02
    22d8:	80 8a       	std	Z+16, r8	; 0x10
    22da:	80 76       	andi	r24, 0x60	; 96
    22dc:	76 76       	andi	r23, 0x66	; 102
    22de:	6c 6c       	ori	r22, 0xCC	; 204
    22e0:	6c 62       	ori	r22, 0x2C	; 44
    22e2:	62 62       	ori	r22, 0x22	; 34
    22e4:	62 76       	andi	r22, 0x62	; 98
    22e6:	76 76       	andi	r23, 0x66	; 102
    22e8:	76 80       	ldd	r7, Z+6	; 0x06
    22ea:	80 80       	ld	r8, Z
    22ec:	80 80       	ld	r8, Z
    22ee:	76 76       	andi	r23, 0x66	; 102
    22f0:	76 76       	andi	r23, 0x66	; 102
    22f2:	76 80       	ldd	r7, Z+6	; 0x06
    22f4:	76 76       	andi	r23, 0x66	; 102
    22f6:	80 8a       	std	Z+16, r8	; 0x10
    22f8:	8a 8a       	std	Y+18, r8	; 0x12
    22fa:	8a 8a       	std	Y+18, r8	; 0x12
    22fc:	80 8a       	std	Z+16, r8	; 0x10
    22fe:	8a 8a       	std	Y+18, r8	; 0x12
    2300:	8a 80       	ldd	r8, Y+2	; 0x02
    2302:	80 8a       	std	Z+16, r8	; 0x10
    2304:	80 76       	andi	r24, 0x60	; 96
    2306:	76 76       	andi	r23, 0x66	; 102
    2308:	6c 6c       	ori	r22, 0xCC	; 204
    230a:	6c 62       	ori	r22, 0x2C	; 44
    230c:	62 62       	ori	r22, 0x22	; 34
    230e:	62 6c       	ori	r22, 0xC2	; 194
    2310:	76 76       	andi	r23, 0x66	; 102
    2312:	76 76       	andi	r23, 0x66	; 102
    2314:	80 80       	ld	r8, Z
    2316:	80 80       	ld	r8, Z
    2318:	76 76       	andi	r23, 0x66	; 102
    231a:	76 76       	andi	r23, 0x66	; 102
    231c:	76 80       	ldd	r7, Z+6	; 0x06
    231e:	76 76       	andi	r23, 0x66	; 102
    2320:	80 8a       	std	Z+16, r8	; 0x10
    2322:	8a 8a       	std	Y+18, r8	; 0x12
    2324:	8a 8a       	std	Y+18, r8	; 0x12
    2326:	8a 8a       	std	Y+18, r8	; 0x12
    2328:	8a 8a       	std	Y+18, r8	; 0x12
    232a:	8a 80       	ldd	r8, Y+2	; 0x02
    232c:	80 8a       	std	Z+16, r8	; 0x10
    232e:	80 80       	ld	r8, Z
    2330:	76 76       	andi	r23, 0x66	; 102
    2332:	6c 6c       	ori	r22, 0xCC	; 204
    2334:	6c 6c       	ori	r22, 0xCC	; 204
    2336:	62 62       	ori	r22, 0x22	; 34
    2338:	62 6c       	ori	r22, 0xC2	; 194
    233a:	76 76       	andi	r23, 0x66	; 102
    233c:	76 76       	andi	r23, 0x66	; 102
    233e:	80 80       	ld	r8, Z
    2340:	80 80       	ld	r8, Z
    2342:	80 76       	andi	r24, 0x60	; 96
    2344:	76 76       	andi	r23, 0x66	; 102
    2346:	76 80       	ldd	r7, Z+6	; 0x06
    2348:	76 76       	andi	r23, 0x66	; 102
    234a:	80 80       	ld	r8, Z
    234c:	8a 8a       	std	Y+18, r8	; 0x12
    234e:	8a 8a       	std	Y+18, r8	; 0x12
    2350:	8a 8a       	std	Y+18, r8	; 0x12
    2352:	8a 8a       	std	Y+18, r8	; 0x12
    2354:	8a 80       	ldd	r8, Y+2	; 0x02
    2356:	8a 8a       	std	Y+18, r8	; 0x12
    2358:	80 80       	ld	r8, Z
    235a:	76 76       	andi	r23, 0x66	; 102
    235c:	6c 6c       	ori	r22, 0xCC	; 204
    235e:	6c 6c       	ori	r22, 0xCC	; 204
    2360:	62 62       	ori	r22, 0x22	; 34
    2362:	62 6c       	ori	r22, 0xC2	; 194
    2364:	76 76       	andi	r23, 0x66	; 102
    2366:	76 76       	andi	r23, 0x66	; 102
    2368:	80 80       	ld	r8, Z
    236a:	80 80       	ld	r8, Z
    236c:	80 76       	andi	r24, 0x60	; 96
    236e:	76 76       	andi	r23, 0x66	; 102
    2370:	76 76       	andi	r23, 0x66	; 102
    2372:	80 80       	ld	r8, Z
    2374:	76 80       	ldd	r7, Z+6	; 0x06
    2376:	8a 8a       	std	Y+18, r8	; 0x12
    2378:	8a 8a       	std	Y+18, r8	; 0x12
    237a:	8a 80       	ldd	r8, Y+2	; 0x02
    237c:	8a 8a       	std	Y+18, r8	; 0x12
    237e:	8a 8a       	std	Y+18, r8	; 0x12
    2380:	80 80       	ld	r8, Z
    2382:	8a 80       	ldd	r8, Y+2	; 0x02
    2384:	76 76       	andi	r23, 0x66	; 102
    2386:	6c 6c       	ori	r22, 0xCC	; 204
    2388:	62 6c       	ori	r22, 0xC2	; 194
    238a:	62 62       	ori	r22, 0x22	; 34
    238c:	62 6c       	ori	r22, 0xC2	; 194
    238e:	76 80       	ldd	r7, Z+6	; 0x06
    2390:	76 80       	ldd	r7, Z+6	; 0x06
    2392:	80 80       	ld	r8, Z
    2394:	80 80       	ld	r8, Z
    2396:	80 76       	andi	r24, 0x60	; 96
    2398:	76 76       	andi	r23, 0x66	; 102
    239a:	76 76       	andi	r23, 0x66	; 102
    239c:	80 80       	ld	r8, Z
    239e:	80 80       	ld	r8, Z
    23a0:	8a 8a       	std	Y+18, r8	; 0x12
    23a2:	8a 8a       	std	Y+18, r8	; 0x12
    23a4:	8a 80       	ldd	r8, Y+2	; 0x02
    23a6:	8a 8a       	std	Y+18, r8	; 0x12
    23a8:	8a 8a       	std	Y+18, r8	; 0x12
    23aa:	80 80       	ld	r8, Z
    23ac:	8a 80       	ldd	r8, Y+2	; 0x02
    23ae:	76 76       	andi	r23, 0x66	; 102
    23b0:	6c 6c       	ori	r22, 0xCC	; 204
    23b2:	62 62       	ori	r22, 0x22	; 34
    23b4:	62 62       	ori	r22, 0x22	; 34
    23b6:	62 62       	ori	r22, 0x22	; 34
    23b8:	76 76       	andi	r23, 0x66	; 102
    23ba:	76 76       	andi	r23, 0x66	; 102
    23bc:	76 80       	ldd	r7, Z+6	; 0x06
    23be:	80 80       	ld	r8, Z
    23c0:	80 76       	andi	r24, 0x60	; 96
    23c2:	76 76       	andi	r23, 0x66	; 102
    23c4:	76 76       	andi	r23, 0x66	; 102
    23c6:	80 76       	andi	r24, 0x60	; 96
    23c8:	76 80       	ldd	r7, Z+6	; 0x06
    23ca:	8a 8a       	std	Y+18, r8	; 0x12
    23cc:	8a 8a       	std	Y+18, r8	; 0x12
    23ce:	8a 8a       	std	Y+18, r8	; 0x12
    23d0:	8a 8a       	std	Y+18, r8	; 0x12
    23d2:	8a 8a       	std	Y+18, r8	; 0x12
    23d4:	80 80       	ld	r8, Z
    23d6:	8a 80       	ldd	r8, Y+2	; 0x02
    23d8:	76 76       	andi	r23, 0x66	; 102
    23da:	6c 6c       	ori	r22, 0xCC	; 204
    23dc:	6c 6c       	ori	r22, 0xCC	; 204
    23de:	62 62       	ori	r22, 0x22	; 34
    23e0:	62 62       	ori	r22, 0x22	; 34
    23e2:	76 76       	andi	r23, 0x66	; 102
    23e4:	76 76       	andi	r23, 0x66	; 102
    23e6:	76 80       	ldd	r7, Z+6	; 0x06
    23e8:	80 80       	ld	r8, Z
    23ea:	80 76       	andi	r24, 0x60	; 96
    23ec:	76 76       	andi	r23, 0x66	; 102
    23ee:	76 76       	andi	r23, 0x66	; 102
    23f0:	80 76       	andi	r24, 0x60	; 96
    23f2:	76 80       	ldd	r7, Z+6	; 0x06
    23f4:	8a 8a       	std	Y+18, r8	; 0x12
    23f6:	8a 8a       	std	Y+18, r8	; 0x12
    23f8:	8a 8a       	std	Y+18, r8	; 0x12
    23fa:	8a 8a       	std	Y+18, r8	; 0x12
    23fc:	8a 8a       	std	Y+18, r8	; 0x12
    23fe:	80 80       	ld	r8, Z
    2400:	8a 80       	ldd	r8, Y+2	; 0x02
    2402:	76 76       	andi	r23, 0x66	; 102
    2404:	76 6c       	ori	r23, 0xC6	; 198
    2406:	6c 6c       	ori	r22, 0xCC	; 204
    2408:	6c 62       	ori	r22, 0x2C	; 44
    240a:	62 62       	ori	r22, 0x22	; 34
    240c:	76 76       	andi	r23, 0x66	; 102
    240e:	76 76       	andi	r23, 0x66	; 102
    2410:	76 80       	ldd	r7, Z+6	; 0x06
    2412:	80 80       	ld	r8, Z
    2414:	80 76       	andi	r24, 0x60	; 96
    2416:	76 76       	andi	r23, 0x66	; 102
    2418:	76 76       	andi	r23, 0x66	; 102
    241a:	80 76       	andi	r24, 0x60	; 96
    241c:	76 80       	ldd	r7, Z+6	; 0x06
    241e:	8a 8a       	std	Y+18, r8	; 0x12
    2420:	8a 8a       	std	Y+18, r8	; 0x12
    2422:	8a 80       	ldd	r8, Y+2	; 0x02
    2424:	8a 8a       	std	Y+18, r8	; 0x12
    2426:	8a 8a       	std	Y+18, r8	; 0x12
    2428:	80 80       	ld	r8, Z
    242a:	8a 80       	ldd	r8, Y+2	; 0x02
    242c:	76 76       	andi	r23, 0x66	; 102
    242e:	76 6c       	ori	r23, 0xC6	; 198
    2430:	6c 6c       	ori	r22, 0xCC	; 204
    2432:	6c 62       	ori	r22, 0x2C	; 44
    2434:	62 62       	ori	r22, 0x22	; 34
    2436:	6c 76       	andi	r22, 0x6C	; 108
    2438:	76 76       	andi	r23, 0x66	; 102
    243a:	76 80       	ldd	r7, Z+6	; 0x06
    243c:	80 80       	ld	r8, Z
    243e:	80 76       	andi	r24, 0x60	; 96
    2440:	76 76       	andi	r23, 0x66	; 102
    2442:	76 76       	andi	r23, 0x66	; 102
    2444:	80 76       	andi	r24, 0x60	; 96
    2446:	76 80       	ldd	r7, Z+6	; 0x06
    2448:	8a 8a       	std	Y+18, r8	; 0x12
    244a:	8a 8a       	std	Y+18, r8	; 0x12
    244c:	8a 80       	ldd	r8, Y+2	; 0x02
    244e:	8a 8a       	std	Y+18, r8	; 0x12
    2450:	8a 8a       	std	Y+18, r8	; 0x12
    2452:	80 80       	ld	r8, Z
    2454:	8a 80       	ldd	r8, Y+2	; 0x02
    2456:	80 76       	andi	r24, 0x60	; 96
    2458:	76 6c       	ori	r23, 0xC6	; 198
    245a:	6c 6c       	ori	r22, 0xCC	; 204
    245c:	6c 62       	ori	r22, 0x2C	; 44
    245e:	62 62       	ori	r22, 0x22	; 34
    2460:	6c 76       	andi	r22, 0x6C	; 108
    2462:	76 76       	andi	r23, 0x66	; 102
    2464:	76 80       	ldd	r7, Z+6	; 0x06
    2466:	80 80       	ld	r8, Z
    2468:	80 80       	ld	r8, Z
    246a:	76 76       	andi	r23, 0x66	; 102
    246c:	76 76       	andi	r23, 0x66	; 102
    246e:	80 76       	andi	r24, 0x60	; 96
    2470:	76 80       	ldd	r7, Z+6	; 0x06
    2472:	80 8a       	std	Z+16, r8	; 0x10
    2474:	8a 8a       	std	Y+18, r8	; 0x12
    2476:	8a 8a       	std	Y+18, r8	; 0x12
    2478:	8a 8a       	std	Y+18, r8	; 0x12
    247a:	8a 8a       	std	Y+18, r8	; 0x12
    247c:	80 80       	ld	r8, Z
    247e:	8a 80       	ldd	r8, Y+2	; 0x02
    2480:	80 76       	andi	r24, 0x60	; 96
    2482:	76 6c       	ori	r23, 0xC6	; 198
    2484:	6c 6c       	ori	r22, 0xCC	; 204
    2486:	6c 62       	ori	r22, 0x2C	; 44
    2488:	62 62       	ori	r22, 0x22	; 34
    248a:	6c 76       	andi	r22, 0x6C	; 108
    248c:	76 76       	andi	r23, 0x66	; 102
    248e:	76 80       	ldd	r7, Z+6	; 0x06
    2490:	80 80       	ld	r8, Z
    2492:	80 80       	ld	r8, Z
    2494:	76 76       	andi	r23, 0x66	; 102
    2496:	76 76       	andi	r23, 0x66	; 102
    2498:	76 80       	ldd	r7, Z+6	; 0x06
    249a:	80 76       	andi	r24, 0x60	; 96
    249c:	80 8a       	std	Z+16, r8	; 0x10
    249e:	8a 8a       	std	Y+18, r8	; 0x12
    24a0:	8a 8a       	std	Y+18, r8	; 0x12
    24a2:	80 8a       	std	Z+16, r8	; 0x10
    24a4:	8a 8a       	std	Y+18, r8	; 0x12
    24a6:	8a 80       	ldd	r8, Y+2	; 0x02
    24a8:	80 8a       	std	Z+16, r8	; 0x10
    24aa:	80 76       	andi	r24, 0x60	; 96
    24ac:	76 76       	andi	r23, 0x66	; 102
    24ae:	6c 62       	ori	r22, 0x2C	; 44
    24b0:	6c 62       	ori	r22, 0x2C	; 44
    24b2:	62 62       	ori	r22, 0x22	; 34
    24b4:	6c 76       	andi	r22, 0x6C	; 108
    24b6:	80 76       	andi	r24, 0x60	; 96
    24b8:	80 80       	ld	r8, Z
    24ba:	80 80       	ld	r8, Z
    24bc:	80 80       	ld	r8, Z
    24be:	76 76       	andi	r23, 0x66	; 102
    24c0:	76 76       	andi	r23, 0x66	; 102
    24c2:	76 80       	ldd	r7, Z+6	; 0x06
    24c4:	80 80       	ld	r8, Z
    24c6:	80 8a       	std	Z+16, r8	; 0x10
    24c8:	8a 8a       	std	Y+18, r8	; 0x12
    24ca:	8a 8a       	std	Y+18, r8	; 0x12
    24cc:	80 8a       	std	Z+16, r8	; 0x10
    24ce:	8a 8a       	std	Y+18, r8	; 0x12
    24d0:	8a 80       	ldd	r8, Y+2	; 0x02
    24d2:	80 8a       	std	Z+16, r8	; 0x10
    24d4:	80 76       	andi	r24, 0x60	; 96
    24d6:	76 6c       	ori	r23, 0xC6	; 198
    24d8:	6c 62       	ori	r22, 0x2C	; 44
    24da:	6c 62       	ori	r22, 0x2C	; 44
    24dc:	62 62       	ori	r22, 0x22	; 34
    24de:	62 76       	andi	r22, 0x62	; 98
    24e0:	76 76       	andi	r23, 0x66	; 102
    24e2:	76 76       	andi	r23, 0x66	; 102
    24e4:	80 80       	ld	r8, Z
    24e6:	80 80       	ld	r8, Z
    24e8:	76 76       	andi	r23, 0x66	; 102
    24ea:	76 76       	andi	r23, 0x66	; 102
    24ec:	76 80       	ldd	r7, Z+6	; 0x06
    24ee:	76 76       	andi	r23, 0x66	; 102
    24f0:	80 8a       	std	Z+16, r8	; 0x10
    24f2:	8a 8a       	std	Y+18, r8	; 0x12
    24f4:	8a 8a       	std	Y+18, r8	; 0x12
    24f6:	8a 8a       	std	Y+18, r8	; 0x12
    24f8:	8a 8a       	std	Y+18, r8	; 0x12
    24fa:	8a 80       	ldd	r8, Y+2	; 0x02
    24fc:	80 8a       	std	Z+16, r8	; 0x10
    24fe:	80 76       	andi	r24, 0x60	; 96
    2500:	76 76       	andi	r23, 0x66	; 102
    2502:	6c 6c       	ori	r22, 0xCC	; 204
    2504:	6c 62       	ori	r22, 0x2C	; 44
    2506:	62 62       	ori	r22, 0x22	; 34
    2508:	62 76       	andi	r22, 0x62	; 98
    250a:	76 76       	andi	r23, 0x66	; 102
    250c:	76 76       	andi	r23, 0x66	; 102
    250e:	80 80       	ld	r8, Z
    2510:	80 80       	ld	r8, Z
    2512:	76 76       	andi	r23, 0x66	; 102
    2514:	76 76       	andi	r23, 0x66	; 102
    2516:	76 80       	ldd	r7, Z+6	; 0x06
    2518:	76 76       	andi	r23, 0x66	; 102
    251a:	80 8a       	std	Z+16, r8	; 0x10
    251c:	8a 8a       	std	Y+18, r8	; 0x12
    251e:	8a 8a       	std	Y+18, r8	; 0x12
    2520:	8a 8a       	std	Y+18, r8	; 0x12
    2522:	8a 8a       	std	Y+18, r8	; 0x12
    2524:	8a 80       	ldd	r8, Y+2	; 0x02
    2526:	80 8a       	std	Z+16, r8	; 0x10
    2528:	80 76       	andi	r24, 0x60	; 96
    252a:	76 76       	andi	r23, 0x66	; 102
    252c:	6c 6c       	ori	r22, 0xCC	; 204
    252e:	6c 6c       	ori	r22, 0xCC	; 204
    2530:	62 62       	ori	r22, 0x22	; 34
    2532:	62 76       	andi	r22, 0x62	; 98
    2534:	76 76       	andi	r23, 0x66	; 102
    2536:	76 76       	andi	r23, 0x66	; 102
    2538:	80 80       	ld	r8, Z
    253a:	80 80       	ld	r8, Z
    253c:	80 76       	andi	r24, 0x60	; 96
    253e:	76 76       	andi	r23, 0x66	; 102
    2540:	76 80       	ldd	r7, Z+6	; 0x06
    2542:	76 76       	andi	r23, 0x66	; 102
    2544:	80 8a       	std	Z+16, r8	; 0x10
    2546:	8a 8a       	std	Y+18, r8	; 0x12
    2548:	8a 8a       	std	Y+18, r8	; 0x12
    254a:	80 8a       	std	Z+16, r8	; 0x10
    254c:	8a 8a       	std	Y+18, r8	; 0x12
    254e:	8a 80       	ldd	r8, Y+2	; 0x02
    2550:	80 8a       	std	Z+16, r8	; 0x10
    2552:	80 80       	ld	r8, Z
    2554:	76 76       	andi	r23, 0x66	; 102
    2556:	6c 6c       	ori	r22, 0xCC	; 204
    2558:	6c 6c       	ori	r22, 0xCC	; 204
    255a:	62 62       	ori	r22, 0x22	; 34
    255c:	62 6c       	ori	r22, 0xC2	; 194
    255e:	76 76       	andi	r23, 0x66	; 102
    2560:	76 76       	andi	r23, 0x66	; 102
    2562:	80 80       	ld	r8, Z
    2564:	80 80       	ld	r8, Z
    2566:	80 76       	andi	r24, 0x60	; 96
    2568:	76 76       	andi	r23, 0x66	; 102
    256a:	76 80       	ldd	r7, Z+6	; 0x06
    256c:	76 76       	andi	r23, 0x66	; 102
    256e:	80 8a       	std	Z+16, r8	; 0x10
    2570:	8a 8a       	std	Y+18, r8	; 0x12
    2572:	8a 8a       	std	Y+18, r8	; 0x12
    2574:	80 8a       	std	Z+16, r8	; 0x10
    2576:	8a 8a       	std	Y+18, r8	; 0x12
    2578:	8a 80       	ldd	r8, Y+2	; 0x02
    257a:	80 8a       	std	Z+16, r8	; 0x10
    257c:	80 80       	ld	r8, Z
    257e:	76 76       	andi	r23, 0x66	; 102
    2580:	6c 6c       	ori	r22, 0xCC	; 204
    2582:	6c 6c       	ori	r22, 0xCC	; 204
    2584:	62 62       	ori	r22, 0x22	; 34
    2586:	62 6c       	ori	r22, 0xC2	; 194
    2588:	76 76       	andi	r23, 0x66	; 102
    258a:	76 76       	andi	r23, 0x66	; 102
    258c:	80 80       	ld	r8, Z
    258e:	80 80       	ld	r8, Z
    2590:	80 76       	andi	r24, 0x60	; 96
    2592:	76 76       	andi	r23, 0x66	; 102
    2594:	76 80       	ldd	r7, Z+6	; 0x06
    2596:	76 76       	andi	r23, 0x66	; 102
    2598:	80 80       	ld	r8, Z
    259a:	8a 8a       	std	Y+18, r8	; 0x12
    259c:	8a 8a       	std	Y+18, r8	; 0x12
    259e:	80 8a       	std	Z+16, r8	; 0x10
    25a0:	8a 8a       	std	Y+18, r8	; 0x12
    25a2:	8a 80       	ldd	r8, Y+2	; 0x02
    25a4:	80 8a       	std	Z+16, r8	; 0x10
    25a6:	80 80       	ld	r8, Z
    25a8:	80 76       	andi	r24, 0x60	; 96
    25aa:	6c 6c       	ori	r22, 0xCC	; 204
    25ac:	6c 6c       	ori	r22, 0xCC	; 204
    25ae:	62 62       	ori	r22, 0x22	; 34
    25b0:	62 6c       	ori	r22, 0xC2	; 194
    25b2:	76 76       	andi	r23, 0x66	; 102
    25b4:	76 76       	andi	r23, 0x66	; 102
    25b6:	80 80       	ld	r8, Z
    25b8:	80 80       	ld	r8, Z
    25ba:	80 76       	andi	r24, 0x60	; 96
    25bc:	76 76       	andi	r23, 0x66	; 102
    25be:	76 76       	andi	r23, 0x66	; 102
    25c0:	80 80       	ld	r8, Z
    25c2:	76 80       	ldd	r7, Z+6	; 0x06
    25c4:	8a 8a       	std	Y+18, r8	; 0x12
    25c6:	8a 8a       	std	Y+18, r8	; 0x12
    25c8:	8a 80       	ldd	r8, Y+2	; 0x02
    25ca:	8a 8a       	std	Y+18, r8	; 0x12
    25cc:	8a 80       	ldd	r8, Y+2	; 0x02
    25ce:	80 80       	ld	r8, Z
    25d0:	8a 80       	ldd	r8, Y+2	; 0x02
    25d2:	76 76       	andi	r23, 0x66	; 102
    25d4:	76 6c       	ori	r23, 0xC6	; 198
    25d6:	6c 6c       	ori	r22, 0xCC	; 204
    25d8:	62 62       	ori	r22, 0x22	; 34
    25da:	62 6c       	ori	r22, 0xC2	; 194
    25dc:	76 80       	ldd	r7, Z+6	; 0x06
    25de:	76 80       	ldd	r7, Z+6	; 0x06
    25e0:	80 80       	ld	r8, Z
    25e2:	80 80       	ld	r8, Z
    25e4:	80 80       	ld	r8, Z
    25e6:	76 76       	andi	r23, 0x66	; 102
    25e8:	76 76       	andi	r23, 0x66	; 102
    25ea:	80 80       	ld	r8, Z
    25ec:	76 80       	ldd	r7, Z+6	; 0x06
    25ee:	8a 8a       	std	Y+18, r8	; 0x12
    25f0:	8a 8a       	std	Y+18, r8	; 0x12
    25f2:	8a 80       	ldd	r8, Y+2	; 0x02
    25f4:	8a 8a       	std	Y+18, r8	; 0x12
    25f6:	8a 80       	ldd	r8, Y+2	; 0x02
    25f8:	80 80       	ld	r8, Z
    25fa:	8a 80       	ldd	r8, Y+2	; 0x02
    25fc:	76 76       	andi	r23, 0x66	; 102
    25fe:	6c 6c       	ori	r22, 0xCC	; 204
    2600:	6c 6c       	ori	r22, 0xCC	; 204
    2602:	62 62       	ori	r22, 0x22	; 34
    2604:	62 62       	ori	r22, 0x22	; 34
    2606:	76 76       	andi	r23, 0x66	; 102
    2608:	76 76       	andi	r23, 0x66	; 102
    260a:	76 80       	ldd	r7, Z+6	; 0x06
    260c:	80 80       	ld	r8, Z
    260e:	80 76       	andi	r24, 0x60	; 96
    2610:	76 76       	andi	r23, 0x66	; 102
    2612:	76 76       	andi	r23, 0x66	; 102
    2614:	80 76       	andi	r24, 0x60	; 96
    2616:	76 80       	ldd	r7, Z+6	; 0x06
    2618:	8a 8a       	std	Y+18, r8	; 0x12
    261a:	8a 8a       	std	Y+18, r8	; 0x12
    261c:	8a 80       	ldd	r8, Y+2	; 0x02
    261e:	8a 8a       	std	Y+18, r8	; 0x12
    2620:	8a 8a       	std	Y+18, r8	; 0x12
    2622:	80 80       	ld	r8, Z
    2624:	8a 80       	ldd	r8, Y+2	; 0x02
    2626:	76 76       	andi	r23, 0x66	; 102
    2628:	76 6c       	ori	r23, 0xC6	; 198
    262a:	6c 6c       	ori	r22, 0xCC	; 204
    262c:	6c 62       	ori	r22, 0x2C	; 44
    262e:	62 62       	ori	r22, 0x22	; 34
    2630:	76 76       	andi	r23, 0x66	; 102
    2632:	76 76       	andi	r23, 0x66	; 102
    2634:	76 80       	ldd	r7, Z+6	; 0x06
    2636:	80 80       	ld	r8, Z
    2638:	80 80       	ld	r8, Z
    263a:	76 76       	andi	r23, 0x66	; 102
    263c:	76 76       	andi	r23, 0x66	; 102
    263e:	80 76       	andi	r24, 0x60	; 96
    2640:	76 80       	ldd	r7, Z+6	; 0x06
    2642:	8a 8a       	std	Y+18, r8	; 0x12
    2644:	8a 8a       	std	Y+18, r8	; 0x12
    2646:	8a 8a       	std	Y+18, r8	; 0x12
    2648:	8a 8a       	std	Y+18, r8	; 0x12
    264a:	8a 8a       	std	Y+18, r8	; 0x12
    264c:	80 80       	ld	r8, Z
    264e:	8a 80       	ldd	r8, Y+2	; 0x02
    2650:	76 76       	andi	r23, 0x66	; 102
    2652:	76 6c       	ori	r23, 0xC6	; 198
    2654:	6c 6c       	ori	r22, 0xCC	; 204
    2656:	6c 62       	ori	r22, 0x2C	; 44
    2658:	62 62       	ori	r22, 0x22	; 34
    265a:	76 76       	andi	r23, 0x66	; 102
    265c:	76 76       	andi	r23, 0x66	; 102
    265e:	76 80       	ldd	r7, Z+6	; 0x06
    2660:	80 80       	ld	r8, Z
    2662:	80 80       	ld	r8, Z
    2664:	76 76       	andi	r23, 0x66	; 102
    2666:	76 76       	andi	r23, 0x66	; 102
    2668:	76 76       	andi	r23, 0x66	; 102
    266a:	76 80       	ldd	r7, Z+6	; 0x06
    266c:	8a 8a       	std	Y+18, r8	; 0x12
    266e:	8a 8a       	std	Y+18, r8	; 0x12
    2670:	8a 80       	ldd	r8, Y+2	; 0x02
    2672:	8a 8a       	std	Y+18, r8	; 0x12
    2674:	8a 8a       	std	Y+18, r8	; 0x12
    2676:	80 80       	ld	r8, Z
    2678:	8a 80       	ldd	r8, Y+2	; 0x02
    267a:	80 76       	andi	r24, 0x60	; 96
    267c:	76 6c       	ori	r23, 0xC6	; 198
    267e:	6c 6c       	ori	r22, 0xCC	; 204
    2680:	6c 62       	ori	r22, 0x2C	; 44
    2682:	62 62       	ori	r22, 0x22	; 34
    2684:	6c 76       	andi	r22, 0x6C	; 108
    2686:	76 76       	andi	r23, 0x66	; 102
    2688:	76 80       	ldd	r7, Z+6	; 0x06
    268a:	80 80       	ld	r8, Z
    268c:	80 80       	ld	r8, Z
    268e:	76 76       	andi	r23, 0x66	; 102
    2690:	76 76       	andi	r23, 0x66	; 102
    2692:	80 76       	andi	r24, 0x60	; 96
    2694:	76 80       	ldd	r7, Z+6	; 0x06
    2696:	80 8a       	std	Z+16, r8	; 0x10
    2698:	8a 8a       	std	Y+18, r8	; 0x12
    269a:	8a 80       	ldd	r8, Y+2	; 0x02
    269c:	8a 8a       	std	Y+18, r8	; 0x12
    269e:	8a 8a       	std	Y+18, r8	; 0x12
    26a0:	80 80       	ld	r8, Z
    26a2:	8a 80       	ldd	r8, Y+2	; 0x02
    26a4:	80 76       	andi	r24, 0x60	; 96
    26a6:	76 6c       	ori	r23, 0xC6	; 198
    26a8:	6c 6c       	ori	r22, 0xCC	; 204
    26aa:	6c 6c       	ori	r22, 0xCC	; 204
    26ac:	62 6c       	ori	r22, 0xC2	; 194
    26ae:	6c 76       	andi	r22, 0x6C	; 108
    26b0:	76 76       	andi	r23, 0x66	; 102
    26b2:	76 80       	ldd	r7, Z+6	; 0x06
    26b4:	80 80       	ld	r8, Z
    26b6:	80 80       	ld	r8, Z
    26b8:	76 76       	andi	r23, 0x66	; 102
    26ba:	76 76       	andi	r23, 0x66	; 102
    26bc:	80 76       	andi	r24, 0x60	; 96
    26be:	76 80       	ldd	r7, Z+6	; 0x06
    26c0:	80 8a       	std	Z+16, r8	; 0x10
    26c2:	8a 8a       	std	Y+18, r8	; 0x12
    26c4:	8a 80       	ldd	r8, Y+2	; 0x02
    26c6:	8a 8a       	std	Y+18, r8	; 0x12
    26c8:	8a 8a       	std	Y+18, r8	; 0x12
    26ca:	80 80       	ld	r8, Z
    26cc:	8a 80       	ldd	r8, Y+2	; 0x02
    26ce:	80 80       	ld	r8, Z
    26d0:	76 6c       	ori	r23, 0xC6	; 198
    26d2:	6c 6c       	ori	r22, 0xCC	; 204
    26d4:	6c 6c       	ori	r22, 0xCC	; 204
    26d6:	62 62       	ori	r22, 0x22	; 34
    26d8:	6c 76       	andi	r22, 0x6C	; 108
    26da:	76 76       	andi	r23, 0x66	; 102
    26dc:	76 80       	ldd	r7, Z+6	; 0x06
    26de:	80 80       	ld	r8, Z
    26e0:	80 80       	ld	r8, Z
    26e2:	76 76       	andi	r23, 0x66	; 102
    26e4:	76 76       	andi	r23, 0x66	; 102
    26e6:	76 80       	ldd	r7, Z+6	; 0x06
    26e8:	80 76       	andi	r24, 0x60	; 96
    26ea:	80 8a       	std	Z+16, r8	; 0x10
    26ec:	8a 8a       	std	Y+18, r8	; 0x12
    26ee:	8a 8a       	std	Y+18, r8	; 0x12
    26f0:	80 8a       	std	Z+16, r8	; 0x10
    26f2:	8a 8a       	std	Y+18, r8	; 0x12
    26f4:	80 80       	ld	r8, Z
    26f6:	80 8a       	std	Z+16, r8	; 0x10
    26f8:	80 76       	andi	r24, 0x60	; 96
    26fa:	76 76       	andi	r23, 0x66	; 102
    26fc:	6c 6c       	ori	r22, 0xCC	; 204
    26fe:	6c 6c       	ori	r22, 0xCC	; 204
    2700:	62 62       	ori	r22, 0x22	; 34
    2702:	6c 76       	andi	r22, 0x6C	; 108
    2704:	80 76       	andi	r24, 0x60	; 96
    2706:	80 80       	ld	r8, Z
    2708:	80 80       	ld	r8, Z
    270a:	80 80       	ld	r8, Z
    270c:	80 76       	andi	r24, 0x60	; 96
    270e:	76 76       	andi	r23, 0x66	; 102
    2710:	76 80       	ldd	r7, Z+6	; 0x06
    2712:	80 76       	andi	r24, 0x60	; 96
    2714:	80 8a       	std	Z+16, r8	; 0x10
    2716:	8a 8a       	std	Y+18, r8	; 0x12
    2718:	8a 8a       	std	Y+18, r8	; 0x12
    271a:	80 8a       	std	Z+16, r8	; 0x10
    271c:	8a 8a       	std	Y+18, r8	; 0x12
    271e:	8a 80       	ldd	r8, Y+2	; 0x02
    2720:	80 8a       	std	Z+16, r8	; 0x10
    2722:	80 76       	andi	r24, 0x60	; 96
    2724:	76 76       	andi	r23, 0x66	; 102
    2726:	6c 6c       	ori	r22, 0xCC	; 204
    2728:	6c 62       	ori	r22, 0x2C	; 44
    272a:	62 62       	ori	r22, 0x22	; 34
    272c:	6c 76       	andi	r22, 0x6C	; 108
    272e:	76 76       	andi	r23, 0x66	; 102
    2730:	76 76       	andi	r23, 0x66	; 102
    2732:	80 80       	ld	r8, Z
    2734:	80 80       	ld	r8, Z
    2736:	76 76       	andi	r23, 0x66	; 102
    2738:	76 76       	andi	r23, 0x66	; 102
    273a:	76 80       	ldd	r7, Z+6	; 0x06
    273c:	76 76       	andi	r23, 0x66	; 102
    273e:	80 8a       	std	Z+16, r8	; 0x10
    2740:	8a 8a       	std	Y+18, r8	; 0x12
    2742:	8a 8a       	std	Y+18, r8	; 0x12
    2744:	80 80       	ld	r8, Z
    2746:	8a 8a       	std	Y+18, r8	; 0x12
    2748:	8a 80       	ldd	r8, Y+2	; 0x02
    274a:	80 8a       	std	Z+16, r8	; 0x10
    274c:	80 76       	andi	r24, 0x60	; 96
    274e:	76 76       	andi	r23, 0x66	; 102
    2750:	6c 6c       	ori	r22, 0xCC	; 204
    2752:	6c 6c       	ori	r22, 0xCC	; 204
    2754:	62 62       	ori	r22, 0x22	; 34
    2756:	62 76       	andi	r22, 0x62	; 98
    2758:	76 76       	andi	r23, 0x66	; 102
    275a:	76 76       	andi	r23, 0x66	; 102
    275c:	80 80       	ld	r8, Z
    275e:	80 80       	ld	r8, Z
    2760:	80 76       	andi	r24, 0x60	; 96
    2762:	76 76       	andi	r23, 0x66	; 102
    2764:	76 80       	ldd	r7, Z+6	; 0x06
    2766:	76 76       	andi	r23, 0x66	; 102
    2768:	80 8a       	std	Z+16, r8	; 0x10
    276a:	8a 8a       	std	Y+18, r8	; 0x12
    276c:	8a 8a       	std	Y+18, r8	; 0x12
    276e:	80 8a       	std	Z+16, r8	; 0x10
    2770:	8a 8a       	std	Y+18, r8	; 0x12
    2772:	8a 80       	ldd	r8, Y+2	; 0x02
    2774:	80 8a       	std	Z+16, r8	; 0x10
    2776:	80 76       	andi	r24, 0x60	; 96

00002778 <__ctors_end>:
    2778:	11 24       	eor	r1, r1
    277a:	1f be       	out	0x3f, r1	; 63
    277c:	cf ef       	ldi	r28, 0xFF	; 255
    277e:	d8 e0       	ldi	r29, 0x08	; 8
    2780:	de bf       	out	0x3e, r29	; 62
    2782:	cd bf       	out	0x3d, r28	; 61

00002784 <__do_copy_data>:
    2784:	11 e0       	ldi	r17, 0x01	; 1
    2786:	a0 e0       	ldi	r26, 0x00	; 0
    2788:	b1 e0       	ldi	r27, 0x01	; 1
    278a:	ec e0       	ldi	r30, 0x0C	; 12
    278c:	fc e2       	ldi	r31, 0x2C	; 44
    278e:	02 c0       	rjmp	.+4      	; 0x2794 <__do_copy_data+0x10>
    2790:	05 90       	lpm	r0, Z+
    2792:	0d 92       	st	X+, r0
    2794:	a2 31       	cpi	r26, 0x12	; 18
    2796:	b1 07       	cpc	r27, r17
    2798:	d9 f7       	brne	.-10     	; 0x2790 <__do_copy_data+0xc>

0000279a <__do_clear_bss>:
    279a:	21 e0       	ldi	r18, 0x01	; 1
    279c:	a2 e1       	ldi	r26, 0x12	; 18
    279e:	b1 e0       	ldi	r27, 0x01	; 1
    27a0:	01 c0       	rjmp	.+2      	; 0x27a4 <.do_clear_bss_start>

000027a2 <.do_clear_bss_loop>:
    27a2:	1d 92       	st	X+, r1

000027a4 <.do_clear_bss_start>:
    27a4:	ad 31       	cpi	r26, 0x1D	; 29
    27a6:	b2 07       	cpc	r27, r18
    27a8:	e1 f7       	brne	.-8      	; 0x27a2 <.do_clear_bss_loop>
    27aa:	0e 94 51 14 	call	0x28a2	; 0x28a2 <main>
    27ae:	0c 94 04 16 	jmp	0x2c08	; 0x2c08 <_exit>

000027b2 <__bad_interrupt>:
    27b2:	0c 94 00 00 	jmp	0	; 0x0 <__vectors>

000027b6 <initBoard>:
// See the header file for a define list of all the possible notes
const uint16_t noteArray1[8] = {A3,B3,C4,D4,E4,F4,G4,A4}; 
volatile uint8_t playEnabled = TRUE; // state variable to ensure note does not play more than once per beam break

void initBoard() {
	DDRC = 0; // ADC port input
    27b6:	17 b8       	out	0x07, r1	; 7
	ADCSRA |= (1<<ADEN) | (1<<ADPS1) | (1<<ADPS0); // ADC Enable, ADC prescaler /8
    27b8:	ea e7       	ldi	r30, 0x7A	; 122
    27ba:	f0 e0       	ldi	r31, 0x00	; 0
    27bc:	80 81       	ld	r24, Z
    27be:	83 68       	ori	r24, 0x83	; 131
    27c0:	80 83       	st	Z, r24
	
	DDRD = 0xFF; // set port D pins as output
    27c2:	8f ef       	ldi	r24, 0xFF	; 255
    27c4:	8a b9       	out	0x0a, r24	; 10
	PORTD = 0; // initialize port D pins to 0
    27c6:	1b b8       	out	0x0b, r1	; 11
	OCR0A = 0;
    27c8:	17 bc       	out	0x27, r1	; 39
	TCCR0A |= (1<<WGM00) | (1<<WGM01) | (1<<COM0A1) | (1<<COM0A0); // set up Timer0 for PWM
    27ca:	84 b5       	in	r24, 0x24	; 36
    27cc:	83 6c       	ori	r24, 0xC3	; 195
    27ce:	84 bd       	out	0x24, r24	; 36
	TCCR0B |= (1<<CS00); // Enable Timer0 with prescaler of 1
    27d0:	85 b5       	in	r24, 0x25	; 37
    27d2:	81 60       	ori	r24, 0x01	; 1
    27d4:	85 bd       	out	0x25, r24	; 37
	
	OCR1A = 0;
    27d6:	10 92 89 00 	sts	0x0089, r1
    27da:	10 92 88 00 	sts	0x0088, r1
	TCCR1B|=(1<<WGM12); // Timer1 in CTC mode
    27de:	e1 e8       	ldi	r30, 0x81	; 129
    27e0:	f0 e0       	ldi	r31, 0x00	; 0
    27e2:	80 81       	ld	r24, Z
    27e4:	88 60       	ori	r24, 0x08	; 8
    27e6:	80 83       	st	Z, r24
	TIMSK1|=(1<<OCIE1A); // Enable Timer1, CTC Compare A interrupt
    27e8:	af e6       	ldi	r26, 0x6F	; 111
    27ea:	b0 e0       	ldi	r27, 0x00	; 0
    27ec:	8c 91       	ld	r24, X
    27ee:	82 60       	ori	r24, 0x02	; 2
    27f0:	8c 93       	st	X, r24
	TCCR1B|=(1<<CS10); // Enable Timer1 with prescaler of F_CPU/1
    27f2:	80 81       	ld	r24, Z
    27f4:	81 60       	ori	r24, 0x01	; 1
    27f6:	80 83       	st	Z, r24
    27f8:	08 95       	ret

000027fa <__vector_11>:

}

ISR(TIMER1_COMPA_vect) { // Timer 1 Compare A Interrupt Handler
    27fa:	1f 92       	push	r1
    27fc:	0f 92       	push	r0
    27fe:	0f b6       	in	r0, 0x3f	; 63
    2800:	0f 92       	push	r0
    2802:	11 24       	eor	r1, r1
    2804:	2f 93       	push	r18
    2806:	8f 93       	push	r24
    2808:	9f 93       	push	r25
    280a:	ef 93       	push	r30
    280c:	ff 93       	push	r31
	if(playEnabled == TRUE) { // if we should play the note
    280e:	80 91 00 01 	lds	r24, 0x0100
    2812:	81 30       	cpi	r24, 0x01	; 1
    2814:	79 f4       	brne	.+30     	; 0x2834 <__vector_11+0x3a>
		OCR0A = pgm_read_word(&(pianoWaveform[waveformCounterNote1++])); // put the next value of the waveform out to PWM pin
    2816:	e0 91 1b 01 	lds	r30, 0x011B
    281a:	f0 91 1c 01 	lds	r31, 0x011C
    281e:	cf 01       	movw	r24, r30
    2820:	01 96       	adiw	r24, 0x01	; 1
    2822:	90 93 1c 01 	sts	0x011C, r25
    2826:	80 93 1b 01 	sts	0x011B, r24
    282a:	e8 59       	subi	r30, 0x98	; 152
    282c:	ff 4f       	sbci	r31, 0xFF	; 255
    282e:	85 91       	lpm	r24, Z+
    2830:	94 91       	lpm	r25, Z
    2832:	87 bd       	out	0x27, r24	; 39
	}

	if(waveformCounterNote1 >= 4000) { // if we have played the entire note 10000
    2834:	80 91 1b 01 	lds	r24, 0x011B
    2838:	90 91 1c 01 	lds	r25, 0x011C
    283c:	80 3a       	cpi	r24, 0xA0	; 160
    283e:	9f 40       	sbci	r25, 0x0F	; 15
    2840:	30 f0       	brcs	.+12     	; 0x284e <__vector_11+0x54>
		waveformCounterNote1 = 0; // reset the waveform array index
    2842:	10 92 1c 01 	sts	0x011C, r1
    2846:	10 92 1b 01 	sts	0x011B, r1
		playEnabled = FALSE; // disable playing the note again
    284a:	10 92 00 01 	sts	0x0100, r1
	}
}
    284e:	ff 91       	pop	r31
    2850:	ef 91       	pop	r30
    2852:	9f 91       	pop	r25
    2854:	8f 91       	pop	r24
    2856:	2f 91       	pop	r18
    2858:	0f 90       	pop	r0
    285a:	0f be       	out	0x3f, r0	; 63
    285c:	0f 90       	pop	r0
    285e:	1f 90       	pop	r1
    2860:	18 95       	reti

00002862 <playNote>:

void playNote(uint16_t note) {
	playEnabled = TRUE; // reset state variable
    2862:	21 e0       	ldi	r18, 0x01	; 1
    2864:	20 93 00 01 	sts	0x0100, r18
	waveformCounterNote1 = 0; // reset waveform array index
    2868:	10 92 1c 01 	sts	0x011C, r1
    286c:	10 92 1b 01 	sts	0x011B, r1
	OCR1A = note; // adjust PWM freq to required note
    2870:	90 93 89 00 	sts	0x0089, r25
    2874:	80 93 88 00 	sts	0x0088, r24
    2878:	08 95       	ret

0000287a <playNote1>:
}

void playNote1(uint8_t note) {
	playEnabled = TRUE; // reset state variable
    287a:	91 e0       	ldi	r25, 0x01	; 1
    287c:	90 93 00 01 	sts	0x0100, r25
	waveformCounterNote1 = 0; // reset waveform array index
    2880:	10 92 1c 01 	sts	0x011C, r1
    2884:	10 92 1b 01 	sts	0x011B, r1
	OCR1A = noteArray1[note]; // adjust PWM freq to required note
    2888:	e8 2f       	mov	r30, r24
    288a:	f0 e0       	ldi	r31, 0x00	; 0
    288c:	ee 0f       	add	r30, r30
    288e:	ff 1f       	adc	r31, r31
    2890:	ef 5f       	subi	r30, 0xFF	; 255
    2892:	fe 4f       	sbci	r31, 0xFE	; 254
    2894:	80 81       	ld	r24, Z
    2896:	91 81       	ldd	r25, Z+1	; 0x01
    2898:	90 93 89 00 	sts	0x0089, r25
    289c:	80 93 88 00 	sts	0x0088, r24
    28a0:	08 95       	ret

000028a2 <main>:
}

int main(void) {
	initBoard();
    28a2:	0e 94 db 13 	call	0x27b6	; 0x27b6 <initBoard>
	uint8_t adcLow = 0; // declare and initialize low byte of ADC value
	uint8_t adcHigh = 0; // declare and initialize high byte of ADC value
	uint16_t adcRaw = 0; // declare and initialize 16-bit variable for ADC value
	static uint8_t loopCounter = 0; // loop counter used to check all eight lasers
	static uint8_t noteLocked[8] = {FALSE,FALSE,FALSE,FALSE,FALSE,FALSE,FALSE,FALSE}; // array of state variables to ensure note plays through once without restarting
	sei(); // enable global interrupts
    28a6:	78 94       	sei
	// Any music/note playing must be done after global interrupts have been enabled
	playStarWars();
    28a8:	0e 94 d7 14 	call	0x29ae	; 0x29ae <playStarWars>
	
    while(1) {		
		ADMUX = (loopCounter & 0x0F); // select ADC channel
    28ac:	0f 2e       	mov	r0, r31
    28ae:	fc e7       	ldi	r31, 0x7C	; 124
    28b0:	cf 2e       	mov	r12, r31
    28b2:	d1 2c       	mov	r13, r1
    28b4:	f0 2d       	mov	r31, r0
		ADCSRA |= (1<<ADSC); // start ADC conversion
    28b6:	ca e7       	ldi	r28, 0x7A	; 122
    28b8:	d0 e0       	ldi	r29, 0x00	; 0
		while((ADCSRA & (1<<ADIF))==0); // wait for ADC conversion
		adcLow = ADCL; // get ADC low value
    28ba:	0f 2e       	mov	r0, r31
    28bc:	f8 e7       	ldi	r31, 0x78	; 120
    28be:	ef 2e       	mov	r14, r31
    28c0:	f1 2c       	mov	r15, r1
    28c2:	f0 2d       	mov	r31, r0
		adcHigh = ADCH; // get ADC high value
    28c4:	09 e7       	ldi	r16, 0x79	; 121
    28c6:	10 e0       	ldi	r17, 0x00	; 0
		adcRaw = ((adcHigh << 8) | (adcLow));// combine ADC value

		if((adcRaw < THRESH) && (noteLocked[loopCounter] == FALSE)) { // if the ADC reading is below threshold value (beam is broken) and the note isn't locked
			playNote1(loopCounter); // play the note corresponding to the beam that was broken
			noteLocked[loopCounter] = TRUE;	// lock the note so it doesn't restart immediately
    28c8:	99 24       	eor	r9, r9
    28ca:	93 94       	inc	r9
	sei(); // enable global interrupts
	// Any music/note playing must be done after global interrupts have been enabled
	playStarWars();
	
    while(1) {		
		ADMUX = (loopCounter & 0x0F); // select ADC channel
    28cc:	80 91 1a 01 	lds	r24, 0x011A
    28d0:	8f 70       	andi	r24, 0x0F	; 15
    28d2:	f6 01       	movw	r30, r12
    28d4:	80 83       	st	Z, r24
		ADCSRA |= (1<<ADSC); // start ADC conversion
    28d6:	88 81       	ld	r24, Y
    28d8:	80 64       	ori	r24, 0x40	; 64
    28da:	88 83       	st	Y, r24
		while((ADCSRA & (1<<ADIF))==0); // wait for ADC conversion
    28dc:	88 81       	ld	r24, Y
    28de:	84 ff       	sbrs	r24, 4
    28e0:	fd cf       	rjmp	.-6      	; 0x28dc <main+0x3a>
		adcLow = ADCL; // get ADC low value
    28e2:	f7 01       	movw	r30, r14
    28e4:	80 81       	ld	r24, Z
		adcHigh = ADCH; // get ADC high value
    28e6:	f8 01       	movw	r30, r16
    28e8:	20 81       	ld	r18, Z
		adcRaw = ((adcHigh << 8) | (adcLow));// combine ADC value
    28ea:	90 e0       	ldi	r25, 0x00	; 0
    28ec:	92 2b       	or	r25, r18

		if((adcRaw < THRESH) && (noteLocked[loopCounter] == FALSE)) { // if the ADC reading is below threshold value (beam is broken) and the note isn't locked
    28ee:	84 38       	cpi	r24, 0x84	; 132
    28f0:	93 40       	sbci	r25, 0x03	; 3
    28f2:	88 f4       	brcc	.+34     	; 0x2916 <main+0x74>
    28f4:	80 91 1a 01 	lds	r24, 0x011A
    28f8:	a8 2e       	mov	r10, r24
    28fa:	b1 2c       	mov	r11, r1
    28fc:	f5 01       	movw	r30, r10
    28fe:	ee 5e       	subi	r30, 0xEE	; 238
    2900:	fe 4f       	sbci	r31, 0xFE	; 254
    2902:	90 81       	ld	r25, Z
    2904:	91 11       	cpse	r25, r1
    2906:	0d c0       	rjmp	.+26     	; 0x2922 <main+0x80>
			playNote1(loopCounter); // play the note corresponding to the beam that was broken
    2908:	0e 94 3d 14 	call	0x287a	; 0x287a <playNote1>
			noteLocked[loopCounter] = TRUE;	// lock the note so it doesn't restart immediately
    290c:	f5 01       	movw	r30, r10
    290e:	ee 5e       	subi	r30, 0xEE	; 238
    2910:	fe 4f       	sbci	r31, 0xFE	; 254
    2912:	90 82       	st	Z, r9
    2914:	06 c0       	rjmp	.+12     	; 0x2922 <main+0x80>
		}
		else if(adcRaw >= THRESH) { // if the beam is not broken then we should unlock the note
			noteLocked[loopCounter] = FALSE; // unlock the note
    2916:	e0 91 1a 01 	lds	r30, 0x011A
    291a:	f0 e0       	ldi	r31, 0x00	; 0
    291c:	ee 5e       	subi	r30, 0xEE	; 238
    291e:	fe 4f       	sbci	r31, 0xFE	; 254
    2920:	10 82       	st	Z, r1
		}
		
		loopCounter++; // increase the counter to test next beam
    2922:	80 91 1a 01 	lds	r24, 0x011A
    2926:	8f 5f       	subi	r24, 0xFF	; 255
    2928:	80 93 1a 01 	sts	0x011A, r24
		if(loopCounter >= 8) { // we only have 8 lasers/notes so reset the counter
    292c:	88 30       	cpi	r24, 0x08	; 8
    292e:	70 f2       	brcs	.-100    	; 0x28cc <main+0x2a>
			loopCounter = 0; // reset the counter 
    2930:	10 92 1a 01 	sts	0x011A, r1
    2934:	cb cf       	rjmp	.-106    	; 0x28cc <main+0x2a>

00002936 <playQNote>:
	128,138,138,138,138,138,128,138,138,138,138,128,128,138,128,118,118,118,108,108,108,98,98,98,108,118,118,118,118,118,128,128,128,128,118,118,118,118,118,128,118,118,128,138,138,138,138,138,128,128,138,138,138,128,128,138,128,118,118,118,108,108,108,108,98,98,98,118,118,118,118,118,128,128,128,128,128,118,118,118,118,128,118,118,128,138,138,138,138,138,128,138,138,138,138,128,128,138,128,118
};


void playQNote(uint16_t note) {
	playNote(note);
    2936:	0e 94 31 14 	call	0x2862	; 0x2862 <playNote>
	#else
		//round up by default
		__ticks_dc = (uint32_t)(ceil(fabs(__tmp)));
	#endif

	__builtin_avr_delay_cycles(__ticks_dc);
    293a:	2f ef       	ldi	r18, 0xFF	; 255
    293c:	89 e6       	ldi	r24, 0x69	; 105
    293e:	98 e1       	ldi	r25, 0x18	; 24
    2940:	21 50       	subi	r18, 0x01	; 1
    2942:	80 40       	sbci	r24, 0x00	; 0
    2944:	90 40       	sbci	r25, 0x00	; 0
    2946:	e1 f7       	brne	.-8      	; 0x2940 <playQNote+0xa>
    2948:	00 c0       	rjmp	.+0      	; 0x294a <playQNote+0x14>
    294a:	00 00       	nop
    294c:	08 95       	ret

0000294e <playENote>:
	_delay_ms(500);
}

void playENote(uint16_t note) {
	playNote(note);
    294e:	0e 94 31 14 	call	0x2862	; 0x2862 <playNote>
    2952:	2f ef       	ldi	r18, 0xFF	; 255
    2954:	84 e3       	ldi	r24, 0x34	; 52
    2956:	9c e0       	ldi	r25, 0x0C	; 12
    2958:	21 50       	subi	r18, 0x01	; 1
    295a:	80 40       	sbci	r24, 0x00	; 0
    295c:	90 40       	sbci	r25, 0x00	; 0
    295e:	e1 f7       	brne	.-8      	; 0x2958 <playENote+0xa>
    2960:	00 c0       	rjmp	.+0      	; 0x2962 <playENote+0x14>
    2962:	00 00       	nop
    2964:	08 95       	ret

00002966 <playEdotNote>:
	_delay_ms(250);
}

void playEdotNote(uint16_t note) {
	playNote(note);
    2966:	0e 94 31 14 	call	0x2862	; 0x2862 <playNote>
    296a:	2f e7       	ldi	r18, 0x7F	; 127
    296c:	8f e4       	ldi	r24, 0x4F	; 79
    296e:	92 e1       	ldi	r25, 0x12	; 18
    2970:	21 50       	subi	r18, 0x01	; 1
    2972:	80 40       	sbci	r24, 0x00	; 0
    2974:	90 40       	sbci	r25, 0x00	; 0
    2976:	e1 f7       	brne	.-8      	; 0x2970 <playEdotNote+0xa>
    2978:	00 c0       	rjmp	.+0      	; 0x297a <playEdotNote+0x14>
    297a:	00 00       	nop
    297c:	08 95       	ret

0000297e <playHNote>:
	_delay_ms(375);
}

void playHNote(uint16_t note) {
	playNote(note);
    297e:	0e 94 31 14 	call	0x2862	; 0x2862 <playNote>
    2982:	2f ef       	ldi	r18, 0xFF	; 255
    2984:	83 ed       	ldi	r24, 0xD3	; 211
    2986:	90 e3       	ldi	r25, 0x30	; 48
    2988:	21 50       	subi	r18, 0x01	; 1
    298a:	80 40       	sbci	r24, 0x00	; 0
    298c:	90 40       	sbci	r25, 0x00	; 0
    298e:	e1 f7       	brne	.-8      	; 0x2988 <playHNote+0xa>
    2990:	00 c0       	rjmp	.+0      	; 0x2992 <playHNote+0x14>
    2992:	00 00       	nop
    2994:	08 95       	ret

00002996 <play16Note>:
	_delay_ms(1000);
}

void play16Note(uint16_t note) {
	playNote(note);
    2996:	0e 94 31 14 	call	0x2862	; 0x2862 <playNote>
    299a:	2f e7       	ldi	r18, 0x7F	; 127
    299c:	8a e1       	ldi	r24, 0x1A	; 26
    299e:	96 e0       	ldi	r25, 0x06	; 6
    29a0:	21 50       	subi	r18, 0x01	; 1
    29a2:	80 40       	sbci	r24, 0x00	; 0
    29a4:	90 40       	sbci	r25, 0x00	; 0
    29a6:	e1 f7       	brne	.-8      	; 0x29a0 <play16Note+0xa>
    29a8:	00 c0       	rjmp	.+0      	; 0x29aa <play16Note+0x14>
    29aa:	00 00       	nop
    29ac:	08 95       	ret

000029ae <playStarWars>:
	playNote(note);
	_delay_ms(62);
}

void playStarWars() {
	playQNote(G3);
    29ae:	8e e7       	ldi	r24, 0x7E	; 126
    29b0:	99 e0       	ldi	r25, 0x09	; 9
    29b2:	0e 94 9b 14 	call	0x2936	; 0x2936 <playQNote>
	playQNote(G3);
    29b6:	8e e7       	ldi	r24, 0x7E	; 126
    29b8:	99 e0       	ldi	r25, 0x09	; 9
    29ba:	0e 94 9b 14 	call	0x2936	; 0x2936 <playQNote>
	playQNote(G3);
    29be:	8e e7       	ldi	r24, 0x7E	; 126
    29c0:	99 e0       	ldi	r25, 0x09	; 9
    29c2:	0e 94 9b 14 	call	0x2936	; 0x2936 <playQNote>

	playEdotNote(Ds3);
    29c6:	85 ef       	ldi	r24, 0xF5	; 245
    29c8:	9b e0       	ldi	r25, 0x0B	; 11
    29ca:	0e 94 b3 14 	call	0x2966	; 0x2966 <playEdotNote>
	play16Note(As3);
    29ce:	8b ef       	ldi	r24, 0xFB	; 251
    29d0:	97 e0       	ldi	r25, 0x07	; 7
    29d2:	0e 94 cb 14 	call	0x2996	; 0x2996 <play16Note>
	playQNote(G3);
    29d6:	8e e7       	ldi	r24, 0x7E	; 126
    29d8:	99 e0       	ldi	r25, 0x09	; 9
    29da:	0e 94 9b 14 	call	0x2936	; 0x2936 <playQNote>
	playEdotNote(Ds3);
    29de:	85 ef       	ldi	r24, 0xF5	; 245
    29e0:	9b e0       	ldi	r25, 0x0B	; 11
    29e2:	0e 94 b3 14 	call	0x2966	; 0x2966 <playEdotNote>
	play16Note(As3);
    29e6:	8b ef       	ldi	r24, 0xFB	; 251
    29e8:	97 e0       	ldi	r25, 0x07	; 7
    29ea:	0e 94 cb 14 	call	0x2996	; 0x2996 <play16Note>
	playHNote(G3);
    29ee:	8e e7       	ldi	r24, 0x7E	; 126
    29f0:	99 e0       	ldi	r25, 0x09	; 9
    29f2:	0e 94 bf 14 	call	0x297e	; 0x297e <playHNote>


	playQNote(D4);
    29f6:	86 e5       	ldi	r24, 0x56	; 86
    29f8:	96 e0       	ldi	r25, 0x06	; 6
    29fa:	0e 94 9b 14 	call	0x2936	; 0x2936 <playQNote>
	playQNote(D4);
    29fe:	86 e5       	ldi	r24, 0x56	; 86
    2a00:	96 e0       	ldi	r25, 0x06	; 6
    2a02:	0e 94 9b 14 	call	0x2936	; 0x2936 <playQNote>
	playQNote(D4);
    2a06:	86 e5       	ldi	r24, 0x56	; 86
    2a08:	96 e0       	ldi	r25, 0x06	; 6
    2a0a:	0e 94 9b 14 	call	0x2936	; 0x2936 <playQNote>

	playEdotNote(Ds4);
    2a0e:	8b ef       	ldi	r24, 0xFB	; 251
    2a10:	95 e0       	ldi	r25, 0x05	; 5
    2a12:	0e 94 b3 14 	call	0x2966	; 0x2966 <playEdotNote>
	play16Note(As3);
    2a16:	8b ef       	ldi	r24, 0xFB	; 251
    2a18:	97 e0       	ldi	r25, 0x07	; 7
    2a1a:	0e 94 cb 14 	call	0x2996	; 0x2996 <play16Note>

	playQNote(Fs3);
    2a1e:	8e e0       	ldi	r24, 0x0E	; 14
    2a20:	9a e0       	ldi	r25, 0x0A	; 10
    2a22:	0e 94 9b 14 	call	0x2936	; 0x2936 <playQNote>

	playEdotNote(Ds3);
    2a26:	85 ef       	ldi	r24, 0xF5	; 245
    2a28:	9b e0       	ldi	r25, 0x0B	; 11
    2a2a:	0e 94 b3 14 	call	0x2966	; 0x2966 <playEdotNote>
	play16Note(As3);
    2a2e:	8b ef       	ldi	r24, 0xFB	; 251
    2a30:	97 e0       	ldi	r25, 0x07	; 7
    2a32:	0e 94 cb 14 	call	0x2996	; 0x2996 <play16Note>

	playHNote(G3);
    2a36:	8e e7       	ldi	r24, 0x7E	; 126
    2a38:	99 e0       	ldi	r25, 0x09	; 9
    2a3a:	0e 94 bf 14 	call	0x297e	; 0x297e <playHNote>


	playQNote(G4);
    2a3e:	8f eb       	ldi	r24, 0xBF	; 191
    2a40:	94 e0       	ldi	r25, 0x04	; 4
    2a42:	0e 94 9b 14 	call	0x2936	; 0x2936 <playQNote>
	playEdotNote(G3);
    2a46:	8e e7       	ldi	r24, 0x7E	; 126
    2a48:	99 e0       	ldi	r25, 0x09	; 9
    2a4a:	0e 94 b3 14 	call	0x2966	; 0x2966 <playEdotNote>
	play16Note(G3);
    2a4e:	8e e7       	ldi	r24, 0x7E	; 126
    2a50:	99 e0       	ldi	r25, 0x09	; 9
    2a52:	0e 94 cb 14 	call	0x2996	; 0x2996 <play16Note>
	playQNote(G4);
    2a56:	8f eb       	ldi	r24, 0xBF	; 191
    2a58:	94 e0       	ldi	r25, 0x04	; 4
    2a5a:	0e 94 9b 14 	call	0x2936	; 0x2936 <playQNote>
	playEdotNote(Fs4);
    2a5e:	87 e0       	ldi	r24, 0x07	; 7
    2a60:	95 e0       	ldi	r25, 0x05	; 5
    2a62:	0e 94 b3 14 	call	0x2966	; 0x2966 <playEdotNote>
	play16Note(F4);
    2a66:	84 e5       	ldi	r24, 0x54	; 84
    2a68:	95 e0       	ldi	r25, 0x05	; 5
    2a6a:	0e 94 cb 14 	call	0x2996	; 0x2996 <play16Note>

	play16Note(E4);
    2a6e:	85 ea       	ldi	r24, 0xA5	; 165
    2a70:	95 e0       	ldi	r25, 0x05	; 5
    2a72:	0e 94 cb 14 	call	0x2996	; 0x2996 <play16Note>
	play16Note(Ds4);
    2a76:	8b ef       	ldi	r24, 0xFB	; 251
    2a78:	95 e0       	ldi	r25, 0x05	; 5
    2a7a:	0e 94 cb 14 	call	0x2996	; 0x2996 <play16Note>
	playENote(E4);
    2a7e:	85 ea       	ldi	r24, 0xA5	; 165
    2a80:	95 e0       	ldi	r25, 0x05	; 5
    2a82:	0e 94 a7 14 	call	0x294e	; 0x294e <playENote>
    2a86:	2f ef       	ldi	r18, 0xFF	; 255
    2a88:	84 e3       	ldi	r24, 0x34	; 52
    2a8a:	9c e0       	ldi	r25, 0x0C	; 12
    2a8c:	21 50       	subi	r18, 0x01	; 1
    2a8e:	80 40       	sbci	r24, 0x00	; 0
    2a90:	90 40       	sbci	r25, 0x00	; 0
    2a92:	e1 f7       	brne	.-8      	; 0x2a8c <playStarWars+0xde>
    2a94:	00 c0       	rjmp	.+0      	; 0x2a96 <playStarWars+0xe8>
    2a96:	00 00       	nop
	_delay_ms(250); // eighth rest
	playENote(Gs3);
    2a98:	85 ef       	ldi	r24, 0xF5	; 245
    2a9a:	98 e0       	ldi	r25, 0x08	; 8
    2a9c:	0e 94 a7 14 	call	0x294e	; 0x294e <playENote>
	playQNote(Cs4);
    2aa0:	86 eb       	ldi	r24, 0xB6	; 182
    2aa2:	96 e0       	ldi	r25, 0x06	; 6
    2aa4:	0e 94 9b 14 	call	0x2936	; 0x2936 <playQNote>
	playEdotNote(C4);
    2aa8:	8c e1       	ldi	r24, 0x1C	; 28
    2aaa:	97 e0       	ldi	r25, 0x07	; 7
    2aac:	0e 94 b3 14 	call	0x2966	; 0x2966 <playEdotNote>
	play16Note(B3);
    2ab0:	88 e8       	ldi	r24, 0x88	; 136
    2ab2:	97 e0       	ldi	r25, 0x07	; 7
    2ab4:	0e 94 cb 14 	call	0x2996	; 0x2996 <play16Note>

	play16Note(As3);
    2ab8:	8b ef       	ldi	r24, 0xFB	; 251
    2aba:	97 e0       	ldi	r25, 0x07	; 7
    2abc:	0e 94 cb 14 	call	0x2996	; 0x2996 <play16Note>
	play16Note(A3);
    2ac0:	85 e7       	ldi	r24, 0x75	; 117
    2ac2:	98 e0       	ldi	r25, 0x08	; 8
    2ac4:	0e 94 cb 14 	call	0x2996	; 0x2996 <play16Note>
	playENote(As3);
    2ac8:	8b ef       	ldi	r24, 0xFB	; 251
    2aca:	97 e0       	ldi	r25, 0x07	; 7
    2acc:	0e 94 a7 14 	call	0x294e	; 0x294e <playENote>
    2ad0:	2f ef       	ldi	r18, 0xFF	; 255
    2ad2:	84 e3       	ldi	r24, 0x34	; 52
    2ad4:	9c e0       	ldi	r25, 0x0C	; 12
    2ad6:	21 50       	subi	r18, 0x01	; 1
    2ad8:	80 40       	sbci	r24, 0x00	; 0
    2ada:	90 40       	sbci	r25, 0x00	; 0
    2adc:	e1 f7       	brne	.-8      	; 0x2ad6 <playStarWars+0x128>
    2ade:	00 c0       	rjmp	.+0      	; 0x2ae0 <playStarWars+0x132>
    2ae0:	00 00       	nop
	_delay_ms(250); // eighth rest
	playENote(Ds3);
    2ae2:	85 ef       	ldi	r24, 0xF5	; 245
    2ae4:	9b e0       	ldi	r25, 0x0B	; 11
    2ae6:	0e 94 a7 14 	call	0x294e	; 0x294e <playENote>
	playQNote(Fs3);
    2aea:	8e e0       	ldi	r24, 0x0E	; 14
    2aec:	9a e0       	ldi	r25, 0x0A	; 10
    2aee:	0e 94 9b 14 	call	0x2936	; 0x2936 <playQNote>
	playEdotNote(Ds3);
    2af2:	85 ef       	ldi	r24, 0xF5	; 245
    2af4:	9b e0       	ldi	r25, 0x0B	; 11
    2af6:	0e 94 b3 14 	call	0x2966	; 0x2966 <playEdotNote>
	play16Note(Fs3);
    2afa:	8e e0       	ldi	r24, 0x0E	; 14
    2afc:	9a e0       	ldi	r25, 0x0A	; 10
    2afe:	0e 94 cb 14 	call	0x2996	; 0x2996 <play16Note>

	playQNote(As3);
    2b02:	8b ef       	ldi	r24, 0xFB	; 251
    2b04:	97 e0       	ldi	r25, 0x07	; 7
    2b06:	0e 94 9b 14 	call	0x2936	; 0x2936 <playQNote>
	playEdotNote(G3);
    2b0a:	8e e7       	ldi	r24, 0x7E	; 126
    2b0c:	99 e0       	ldi	r25, 0x09	; 9
    2b0e:	0e 94 b3 14 	call	0x2966	; 0x2966 <playEdotNote>
	play16Note(As3);
    2b12:	8b ef       	ldi	r24, 0xFB	; 251
    2b14:	97 e0       	ldi	r25, 0x07	; 7
    2b16:	0e 94 cb 14 	call	0x2996	; 0x2996 <play16Note>
	playHNote(D4);
    2b1a:	86 e5       	ldi	r24, 0x56	; 86
    2b1c:	96 e0       	ldi	r25, 0x06	; 6
    2b1e:	0e 94 bf 14 	call	0x297e	; 0x297e <playHNote>

	playQNote(G4);
    2b22:	8f eb       	ldi	r24, 0xBF	; 191
    2b24:	94 e0       	ldi	r25, 0x04	; 4
    2b26:	0e 94 9b 14 	call	0x2936	; 0x2936 <playQNote>
	playEdotNote(G3);
    2b2a:	8e e7       	ldi	r24, 0x7E	; 126
    2b2c:	99 e0       	ldi	r25, 0x09	; 9
    2b2e:	0e 94 b3 14 	call	0x2966	; 0x2966 <playEdotNote>
	play16Note(G3);
    2b32:	8e e7       	ldi	r24, 0x7E	; 126
    2b34:	99 e0       	ldi	r25, 0x09	; 9
    2b36:	0e 94 cb 14 	call	0x2996	; 0x2996 <play16Note>
	playQNote(G4);
    2b3a:	8f eb       	ldi	r24, 0xBF	; 191
    2b3c:	94 e0       	ldi	r25, 0x04	; 4
    2b3e:	0e 94 9b 14 	call	0x2936	; 0x2936 <playQNote>
	playEdotNote(Fs4);
    2b42:	87 e0       	ldi	r24, 0x07	; 7
    2b44:	95 e0       	ldi	r25, 0x05	; 5
    2b46:	0e 94 b3 14 	call	0x2966	; 0x2966 <playEdotNote>
	play16Note(F4);
    2b4a:	84 e5       	ldi	r24, 0x54	; 84
    2b4c:	95 e0       	ldi	r25, 0x05	; 5
    2b4e:	0e 94 cb 14 	call	0x2996	; 0x2996 <play16Note>

	play16Note(E4);
    2b52:	85 ea       	ldi	r24, 0xA5	; 165
    2b54:	95 e0       	ldi	r25, 0x05	; 5
    2b56:	0e 94 cb 14 	call	0x2996	; 0x2996 <play16Note>
	play16Note(Ds4);
    2b5a:	8b ef       	ldi	r24, 0xFB	; 251
    2b5c:	95 e0       	ldi	r25, 0x05	; 5
    2b5e:	0e 94 cb 14 	call	0x2996	; 0x2996 <play16Note>
	playENote(E4);
    2b62:	85 ea       	ldi	r24, 0xA5	; 165
    2b64:	95 e0       	ldi	r25, 0x05	; 5
    2b66:	0e 94 a7 14 	call	0x294e	; 0x294e <playENote>
    2b6a:	2f ef       	ldi	r18, 0xFF	; 255
    2b6c:	84 e3       	ldi	r24, 0x34	; 52
    2b6e:	9c e0       	ldi	r25, 0x0C	; 12
    2b70:	21 50       	subi	r18, 0x01	; 1
    2b72:	80 40       	sbci	r24, 0x00	; 0
    2b74:	90 40       	sbci	r25, 0x00	; 0
    2b76:	e1 f7       	brne	.-8      	; 0x2b70 <playStarWars+0x1c2>
    2b78:	00 c0       	rjmp	.+0      	; 0x2b7a <playStarWars+0x1cc>
    2b7a:	00 00       	nop
	_delay_ms(250); // eighth rest
	playENote(Gs3);
    2b7c:	85 ef       	ldi	r24, 0xF5	; 245
    2b7e:	98 e0       	ldi	r25, 0x08	; 8
    2b80:	0e 94 a7 14 	call	0x294e	; 0x294e <playENote>
	playQNote(Cs4);
    2b84:	86 eb       	ldi	r24, 0xB6	; 182
    2b86:	96 e0       	ldi	r25, 0x06	; 6
    2b88:	0e 94 9b 14 	call	0x2936	; 0x2936 <playQNote>
	playEdotNote(C4);
    2b8c:	8c e1       	ldi	r24, 0x1C	; 28
    2b8e:	97 e0       	ldi	r25, 0x07	; 7
    2b90:	0e 94 b3 14 	call	0x2966	; 0x2966 <playEdotNote>
	play16Note(B3);
    2b94:	88 e8       	ldi	r24, 0x88	; 136
    2b96:	97 e0       	ldi	r25, 0x07	; 7
    2b98:	0e 94 cb 14 	call	0x2996	; 0x2996 <play16Note>

	play16Note(As3);
    2b9c:	8b ef       	ldi	r24, 0xFB	; 251
    2b9e:	97 e0       	ldi	r25, 0x07	; 7
    2ba0:	0e 94 cb 14 	call	0x2996	; 0x2996 <play16Note>
	play16Note(A3);
    2ba4:	85 e7       	ldi	r24, 0x75	; 117
    2ba6:	98 e0       	ldi	r25, 0x08	; 8
    2ba8:	0e 94 cb 14 	call	0x2996	; 0x2996 <play16Note>
	playENote(As3);
    2bac:	8b ef       	ldi	r24, 0xFB	; 251
    2bae:	97 e0       	ldi	r25, 0x07	; 7
    2bb0:	0e 94 a7 14 	call	0x294e	; 0x294e <playENote>
    2bb4:	2f ef       	ldi	r18, 0xFF	; 255
    2bb6:	84 e3       	ldi	r24, 0x34	; 52
    2bb8:	9c e0       	ldi	r25, 0x0C	; 12
    2bba:	21 50       	subi	r18, 0x01	; 1
    2bbc:	80 40       	sbci	r24, 0x00	; 0
    2bbe:	90 40       	sbci	r25, 0x00	; 0
    2bc0:	e1 f7       	brne	.-8      	; 0x2bba <playStarWars+0x20c>
    2bc2:	00 c0       	rjmp	.+0      	; 0x2bc4 <playStarWars+0x216>
    2bc4:	00 00       	nop
	_delay_ms(250); // eighth rest
	playENote(Ds3);
    2bc6:	85 ef       	ldi	r24, 0xF5	; 245
    2bc8:	9b e0       	ldi	r25, 0x0B	; 11
    2bca:	0e 94 a7 14 	call	0x294e	; 0x294e <playENote>
	playQNote(Fs3);
    2bce:	8e e0       	ldi	r24, 0x0E	; 14
    2bd0:	9a e0       	ldi	r25, 0x0A	; 10
    2bd2:	0e 94 9b 14 	call	0x2936	; 0x2936 <playQNote>
	playEdotNote(Ds3);
    2bd6:	85 ef       	ldi	r24, 0xF5	; 245
    2bd8:	9b e0       	ldi	r25, 0x0B	; 11
    2bda:	0e 94 b3 14 	call	0x2966	; 0x2966 <playEdotNote>
	play16Note(Fs3);
    2bde:	8e e0       	ldi	r24, 0x0E	; 14
    2be0:	9a e0       	ldi	r25, 0x0A	; 10
    2be2:	0e 94 cb 14 	call	0x2996	; 0x2996 <play16Note>

	playQNote(G3);
    2be6:	8e e7       	ldi	r24, 0x7E	; 126
    2be8:	99 e0       	ldi	r25, 0x09	; 9
    2bea:	0e 94 9b 14 	call	0x2936	; 0x2936 <playQNote>
	playEdotNote(Ds3);
    2bee:	85 ef       	ldi	r24, 0xF5	; 245
    2bf0:	9b e0       	ldi	r25, 0x0B	; 11
    2bf2:	0e 94 b3 14 	call	0x2966	; 0x2966 <playEdotNote>
	play16Note(As3);
    2bf6:	8b ef       	ldi	r24, 0xFB	; 251
    2bf8:	97 e0       	ldi	r25, 0x07	; 7
    2bfa:	0e 94 cb 14 	call	0x2996	; 0x2996 <play16Note>
	playHNote(G3);
    2bfe:	8e e7       	ldi	r24, 0x7E	; 126
    2c00:	99 e0       	ldi	r25, 0x09	; 9
    2c02:	0e 94 bf 14 	call	0x297e	; 0x297e <playHNote>
    2c06:	08 95       	ret

00002c08 <_exit>:
    2c08:	f8 94       	cli

00002c0a <__stop_program>:
    2c0a:	ff cf       	rjmp	.-2      	; 0x2c0a <__stop_program>
